	.cpu generic+fp+simd
	.file	"hisi-blk-iosched-ufs-mq.c"
	.text
.Ltext0:
	.cfi_sections	.debug_frame
	.align	2
	.type	ufs_mq_tag_update_depth, %function
ufs_mq_tag_update_depth:
.LFB3147:
	.file 1 "/mnt/disk/jenkins/ci/workspace/chipset_pipeline_release/opensource/component_code/vendor/huawei/extra/build/build_script/kirin_kernel_release/kernel/block/hisi-blk-iosched-ufs-mq.c"
	.loc 1 449 0
	.cfi_startproc
.LVL0:
	.loc 1 451 0
	mov	w0, -22
.LVL1:
	ret
	.cfi_endproc
.LFE3147:
	.size	ufs_mq_tag_update_depth, .-ufs_mq_tag_update_depth
	.align	2
	.type	ufs_mq_async_sched_fifo_init, %function
ufs_mq_async_sched_fifo_init:
.LFB3180:
	.loc 1 1117 0
	.cfi_startproc
.LVL2:
	.loc 1 1118 0
	ldr	x1, [x0,13016]
.LVL3:
	.loc 1 1119 0
	add	x0, x1, 264
.LVL4:
.LBB1632:
.LBB1633:
.LBB1634:
.LBB1635:
.LBB1636:
	.file 2 "/mnt/disk/jenkins/ci/workspace/chipset_pipeline_release/opensource/component_code/vendor/huawei/extra/build/build_script/kirin_kernel_release/kernel/include/linux/compiler.h"
	.loc 2 276 0
	str	x0, [x1,264]
.LBE1636:
.LBE1635:
.LBE1634:
	.file 3 "/mnt/disk/jenkins/ci/workspace/chipset_pipeline_release/opensource/component_code/vendor/huawei/extra/build/build_script/kirin_kernel_release/kernel/include/linux/list.h"
	.loc 3 28 0
	str	x0, [x0,8]
.LBE1633:
.LBE1632:
	.loc 1 1120 0
	ret
	.cfi_endproc
.LFE3180:
	.size	ufs_mq_async_sched_fifo_init, .-ufs_mq_async_sched_fifo_init
	.align	2
	.type	ufs_mq_async_sched_fifo_insert, %function
ufs_mq_async_sched_fifo_insert:
.LFB3181:
	.loc 1 1123 0
	.cfi_startproc
.LVL5:
	.loc 1 1124 0
	ldr	x1, [x1,13016]
.LVL6:
	.loc 1 1125 0
	add	x2, x0, 440
.LBB1637:
.LBB1638:
	.loc 3 92 0
	add	x1, x1, 264
.LVL7:
	ldr	x3, [x1,8]
.LBB1639:
.LBB1640:
	.loc 3 62 0
	str	x2, [x1,8]
	.loc 3 63 0
	str	x1, [x0,440]
.LVL8:
	.loc 3 64 0
	str	x3, [x0,448]
.LBB1641:
.LBB1642:
.LBB1643:
	.loc 2 276 0
	str	x2, [x3]
.LBE1643:
.LBE1642:
.LBE1641:
.LBE1640:
.LBE1639:
.LBE1638:
.LBE1637:
	.loc 1 1126 0
	ret
	.cfi_endproc
.LFE3181:
	.size	ufs_mq_async_sched_fifo_insert, .-ufs_mq_async_sched_fifo_insert
	.align	2
	.type	ufs_mq_async_sched_fifo_seek, %function
ufs_mq_async_sched_fifo_seek:
.LFB3182:
	.loc 1 1129 0
	.cfi_startproc
.LVL9:
	.loc 1 1130 0
	ldr	x0, [x0,13016]
.LVL10:
	.loc 1 1131 0
	add	x2, x0, 264
.LBB1644:
.LBB1645:
	.loc 3 220 0
	ldr	x1, [x0,264]
.LVL11:
	.loc 3 221 0
	cmp	x2, x1
	beq	.L9
.L5:
.LBE1645:
.LBE1644:
.LBB1647:
.LBB1648:
.LBB1649:
.LBB1650:
	.loc 3 119 0
	ldr	x3, [x1]
.LBE1650:
.LBE1649:
.LBE1648:
	.loc 1 1134 0
	sub	x0, x1, #440
.LVL12:
.LBB1663:
.LBB1657:
.LBB1656:
	.loc 3 119 0
	ldr	x2, [x1,8]
.LBB1651:
.LBB1652:
	.loc 3 104 0
	str	x2, [x3,8]
.LBB1653:
.LBB1654:
.LBB1655:
	.loc 2 276 0
	str	x3, [x2]
.LBE1655:
.LBE1654:
.LBE1653:
.LBE1652:
.LBE1651:
.LBE1656:
.LBE1657:
.LBB1658:
.LBB1659:
.LBB1660:
.LBB1661:
.LBB1662:
	str	x1, [x1]
.LBE1662:
.LBE1661:
.LBE1660:
	.loc 3 28 0
	str	x1, [x1,8]
.LBE1659:
.LBE1658:
.LBE1663:
.LBE1647:
	.loc 1 1138 0
	ret
.LVL13:
.L9:
.LBB1664:
.LBB1646:
	.loc 3 221 0 discriminator 1
	ldr	x0, [x0,272]
.LVL14:
	cmp	x2, x0
	bne	.L5
.LBE1646:
.LBE1664:
	.loc 1 1136 0
	mov	x0, 0
	.loc 1 1138 0
	ret
	.cfi_endproc
.LFE3182:
	.size	ufs_mq_async_sched_fifo_seek, .-ufs_mq_async_sched_fifo_seek
	.align	2
	.type	ufs_mq_async_sched_fifo_requeue, %function
ufs_mq_async_sched_fifo_requeue:
.LFB3183:
	.loc 1 1141 0
	.cfi_startproc
.LVL15:
	.loc 1 1142 0
	ldr	x1, [x1,13016]
.LVL16:
	.loc 1 1143 0
	add	x2, x0, 440
.LBB1665:
.LBB1666:
	.loc 3 78 0
	add	x4, x1, 264
	ldr	x3, [x1,264]
.LBB1667:
.LBB1668:
	.loc 3 62 0
	str	x2, [x3,8]
	.loc 3 63 0
	str	x3, [x0,440]
	.loc 3 64 0
	str	x4, [x0,448]
.LBB1669:
.LBB1670:
.LBB1671:
	.loc 2 276 0
	str	x2, [x1,264]
.LBE1671:
.LBE1670:
.LBE1669:
.LBE1668:
.LBE1667:
.LBE1666:
.LBE1665:
	.loc 1 1144 0
	ret
	.cfi_endproc
.LFE3183:
	.size	ufs_mq_async_sched_fifo_requeue, .-ufs_mq_async_sched_fifo_requeue
	.align	2
	.type	ufs_mq_async_sched_fifo_is_empty, %function
ufs_mq_async_sched_fifo_is_empty:
.LFB3185:
	.loc 1 1167 0
	.cfi_startproc
.LVL17:
	.loc 1 1168 0
	ldr	x0, [x0,13016]
.LVL18:
	.loc 1 1169 0
	add	x1, x0, 264
.LBB1672:
.LBB1673:
.LBB1674:
.LBB1675:
.LBB1676:
	.loc 2 247 0 discriminator 5
	ldr	x0, [x0,264]
.LVL19:
.LBE1676:
.LBE1675:
.LBE1674:
	.loc 3 202 0 discriminator 5
	cmp	x1, x0
.LBE1673:
.LBE1672:
	.loc 1 1170 0
	cset	w0, eq
	ret
	.cfi_endproc
.LFE3185:
	.size	ufs_mq_async_sched_fifo_is_empty, .-ufs_mq_async_sched_fifo_is_empty
	.align	2
	.type	ufs_mq_req_alloc_prep, %function
ufs_mq_req_alloc_prep:
.LFB3205:
	.loc 1 1500 0
	.cfi_startproc
.LVL20:
	.loc 1 1500 0
	uxtb	w5, w5
	.loc 1 1501 0 discriminator 2
	orr	x1, x4, 8
.LVL21:
	cmp	w5, wzr
	csel	x4, x1, x4, eq
.LVL22:
	.loc 1 1501 0 is_stmt 0 discriminator 4
	str	x4, [x0,8]
	.loc 1 1503 0 is_stmt 1
	mov	w0, 0
.LVL23:
	ret
	.cfi_endproc
.LFE3205:
	.size	ufs_mq_req_alloc_prep, .-ufs_mq_req_alloc_prep
	.align	2
	.type	ufs_mq_req_init, %function
ufs_mq_req_init:
.LFB3206:
	.loc 1 1507 0
	.cfi_startproc
.LVL24:
	.loc 1 1516 0
	add	x3, x2, 472
	.loc 1 1518 0
	mov	w0, 0
.LVL25:
	.loc 1 1514 0
	str	x1, [x2,280]
	.loc 1 1515 0
	str	xzr, [x2,264]
	.loc 1 1516 0
	str	x3, [x2,472]
	.loc 1 1518 0
	ret
	.cfi_endproc
.LFE3206:
	.size	ufs_mq_req_init, .-ufs_mq_req_init
	.align	2
	.type	ufs_mq_req_deinit, %function
ufs_mq_req_deinit:
.LFB3208:
	.loc 1 1541 0
	.cfi_startproc
.LVL26:
	.loc 1 1546 0
	mov	w0, 0
.LVL27:
	ret
	.cfi_endproc
.LFE3208:
	.size	ufs_mq_req_deinit, .-ufs_mq_req_deinit
	.align	2
	.type	ufs_mq_ctx_put, %function
ufs_mq_ctx_put:
.LFB3212:
	.loc 1 1611 0
	.cfi_startproc
.LVL28:
	.loc 1 1613 0
.LBB1677:
.LBB1678:
.LBB1679:
.LBB1680:
.LBB1681:
	.file 4 "/mnt/disk/jenkins/ci/workspace/chipset_pipeline_release/opensource/component_code/vendor/huawei/extra/build/build_script/kirin_kernel_release/kernel/arch/arm64/include/asm/current.h"
	.loc 4 20 0
#APP
// 20 "/mnt/disk/jenkins/ci/workspace/chipset_pipeline_release/opensource/component_code/vendor/huawei/extra/build/build_script/kirin_kernel_release/kernel/arch/arm64/include/asm/current.h" 1
	mrs x2, sp_el0
// 0 "" 2
.LVL29:
#NO_APP
.LBE1681:
.LBE1680:
.LBE1679:
	.file 5 "/mnt/disk/jenkins/ci/workspace/chipset_pipeline_release/opensource/component_code/vendor/huawei/extra/build/build_script/kirin_kernel_release/kernel/include/asm-generic/preempt.h"
	.loc 5 58 0
	ldr	w1, [x2,24]
.LBE1678:
.LBE1677:
	.loc 1 1617 0
	mov	w0, 0
.LVL30:
.LBB1683:
.LBB1682:
	.loc 5 58 0
	sub	w1, w1, #1
	str	w1, [x2,24]
.LBE1682:
.LBE1683:
	.loc 1 1617 0
	ret
	.cfi_endproc
.LFE3212:
	.size	ufs_mq_ctx_put, .-ufs_mq_ctx_put
	.align	2
	.type	ufs_mq_hctx_get_by_req, %function
ufs_mq_hctx_get_by_req:
.LFB3213:
	.loc 1 1620 0
	.cfi_startproc
.LVL31:
	.loc 1 1620 0
	mov	x3, x0
	.loc 1 1624 0
	mov	w0, 0
.LVL32:
	.loc 1 1621 0
	ldr	x2, [x3,64]
.LVL33:
	.loc 1 1622 0
	ldr	x4, [x3,280]
.LBB1684:
.LBB1685:
	.file 6 "/mnt/disk/jenkins/ci/workspace/chipset_pipeline_release/opensource/component_code/vendor/huawei/extra/build/build_script/kirin_kernel_release/kernel/block/blk-mq.h"
	.loc 6 53 0
	ldr	x3, [x2,288]
.LVL34:
.LBE1685:
.LBE1684:
	.loc 1 1622 0
	ldr	w4, [x4,64]
.LBB1687:
.LBB1686:
	.loc 6 53 0
	ldr	x2, [x2,312]
.LVL35:
	ldr	w3, [x3,w4,sxtw 2]
	ldr	x2, [x2,w3,uxtw 3]
.LBE1686:
.LBE1687:
	.loc 1 1622 0
	str	x2, [x1]
	.loc 1 1624 0
	ret
	.cfi_endproc
.LFE3213:
	.size	ufs_mq_hctx_get_by_req, .-ufs_mq_hctx_get_by_req
	.align	2
	.type	ufs_mq_hctx_free_in_ctx_map, %function
ufs_mq_hctx_free_in_ctx_map:
.LFB3214:
	.loc 1 1627 0
	.cfi_startproc
.LVL36:
	.loc 1 1628 0
	str	xzr, [x1,184]
	.loc 1 1630 0
	mov	w0, 0
.LVL37:
	ret
	.cfi_endproc
.LFE3214:
	.size	ufs_mq_hctx_free_in_ctx_map, .-ufs_mq_hctx_free_in_ctx_map
	.align	2
	.type	ufs_mq_poll_enable, %function
ufs_mq_poll_enable:
.LFB3219:
	.loc 1 1665 0
	.cfi_startproc
.LVL38:
.LBB1688:
.LBB1689:
.LBB1690:
	.file 7 "/mnt/disk/jenkins/ci/workspace/chipset_pipeline_release/opensource/component_code/vendor/huawei/extra/build/build_script/kirin_kernel_release/kernel/include/asm-generic/bitops/non-atomic.h"
	.loc 7 105 0
	adrp	x7, __cpu_online_mask
.LBE1690:
.LBE1689:
.LBE1688:
	.loc 1 1673 0
	mov	w0, 0
.LVL39:
.LBB1693:
.LBB1692:
.LBB1691:
	.loc 7 105 0
	ldr	x4, [x7,#:lo12:__cpu_online_mask]
	ldr	x3, [x7,#:lo12:__cpu_online_mask]
	ldr	x1, [x7,#:lo12:__cpu_online_mask]
.LVL40:
	and	w4, w4, 1
	ldr	x6, [x7,#:lo12:__cpu_online_mask]
	ubfx	x3, x3, 1, 1
	ldr	x5, [x7,#:lo12:__cpu_online_mask]
	add	w3, w3, w4
	ubfx	x1, x1, 2, 1
	ldr	x4, [x7,#:lo12:__cpu_online_mask]
	add	w1, w1, w3
	ubfx	x6, x6, 3, 1
	ldr	x3, [x7,#:lo12:__cpu_online_mask]
	add	w6, w6, w1
	ubfx	x5, x5, 4, 1
	ldr	x1, [x7,#:lo12:__cpu_online_mask]
	add	w5, w5, w6
	ubfx	x4, x4, 5, 1
	add	w4, w4, w5
	ubfx	x3, x3, 6, 1
	add	w3, w3, w4
	ubfx	x1, x1, 7, 1
	add	w1, w1, w3
.LBE1691:
.LBE1692:
.LBE1693:
	.loc 1 1671 0
	cmp	w1, 1
	cset	w1, gt
	strb	w1, [x2]
	.loc 1 1673 0
	ret
	.cfi_endproc
.LFE3219:
	.size	ufs_mq_poll_enable, .-ufs_mq_poll_enable
	.align	2
	.global	blk_mq_tagset_ufs_mq_iosched_enable
	.type	blk_mq_tagset_ufs_mq_iosched_enable, %function
blk_mq_tagset_ufs_mq_iosched_enable:
.LFB3224:
	.loc 1 1825 0
	.cfi_startproc
.LVL41:
	.loc 1 1827 0
	cbnz	w1, .L24
	.loc 1 1830 0
	ldr	x1, [x0,40]
.LVL42:
	add	x0, x0, 16
.LVL43:
	and	x1, x1, -65
	str	x1, [x0,24]
	.loc 1 1831 0
	ret
.LVL44:
.L24:
	.loc 1 1828 0
	add	x0, x0, 16
.LVL45:
	ldr	x1, [x0,24]
.LVL46:
	orr	x1, x1, 64
	str	x1, [x0,24]
	.loc 1 1831 0
	ret
	.cfi_endproc
.LFE3224:
	.size	blk_mq_tagset_ufs_mq_iosched_enable, .-blk_mq_tagset_ufs_mq_iosched_enable
	.align	2
	.type	ufs_mq_status_dump, %function
ufs_mq_status_dump:
.LFB3220:
	.loc 1 1676 0
	.cfi_startproc
.LVL47:
	stp	x29, x30, [sp, -32]!
	.cfi_def_cfa_offset 32
	.cfi_offset 29, -32
	.cfi_offset 30, -24
	add	x29, sp, 0
	.cfi_def_cfa_register 29
	stp	x19, x20, [sp,16]
	.cfi_offset 19, -16
	.cfi_offset 20, -8
	.loc 1 1677 0
	ldr	x19, [x0,13016]
.LVL48:
	.loc 1 1679 0
	cbz	x19, .L25
	mov	x4, x0
.LBB1694:
.LBB1695:
.LBB1696:
	.loc 2 247 0 discriminator 4
	ldr	w2, [x0,1164]
.LVL49:
.LBE1696:
.LBE1695:
.LBE1694:
.LBB1697:
.LBB1698:
.LBB1699:
	ldr	w3, [x0,1168]
.LBE1699:
.LBE1698:
.LBE1697:
	.loc 1 1682 0 discriminator 18
	adrp	x0, .LC0
.LVL50:
	add	x0, x0, :lo12:.LC0
	mov	x20, x1
.LBB1700:
.LBB1701:
.LBB1702:
	.loc 2 247 0 discriminator 4
	ldr	w4, [x4,1172]
.LVL51:
.LBE1702:
.LBE1701:
.LBE1700:
	.loc 1 1682 0 discriminator 18
	bl	printk
.LVL52:
.LBB1703:
.LBB1704:
.LBB1705:
	.loc 2 247 0 discriminator 4
	ldr	w2, [x19,8]
.LBE1705:
.LBE1704:
.LBE1703:
	.loc 1 1685 0 discriminator 18
	adrp	x0, .LC1
.LBB1706:
.LBB1707:
.LBB1708:
	.loc 2 247 0 discriminator 4
	ldr	w3, [x19,12]
.LBE1708:
.LBE1707:
.LBE1706:
	.loc 1 1685 0 discriminator 18
	add	x0, x0, :lo12:.LC1
.LBB1709:
.LBB1710:
.LBB1711:
	.loc 2 247 0 discriminator 4
	ldr	w4, [x19,16]
.LBE1711:
.LBE1710:
.LBE1709:
	.loc 1 1685 0 discriminator 18
	mov	x1, x20
	bl	printk
.LVL53:
.L25:
	.loc 1 1689 0
	ldp	x19, x20, [sp,16]
	.cfi_restore 20
	.cfi_restore 19
.LVL54:
	ldp	x29, x30, [sp], 32
	.cfi_restore 30
	.cfi_restore 29
	.cfi_def_cfa 31, 0
	ret
	.cfi_endproc
.LFE3220:
	.size	ufs_mq_status_dump, .-ufs_mq_status_dump
	.align	2
	.type	ufs_mq_queue_rq, %function
ufs_mq_queue_rq:
.LFB3164:
	.loc 1 755 0
	.cfi_startproc
.LVL55:
	stp	x29, x30, [sp, -48]!
	.cfi_def_cfa_offset 48
	.cfi_offset 29, -48
	.cfi_offset 30, -40
	add	x29, sp, 0
	.cfi_def_cfa_register 29
	stp	x19, x20, [sp,16]
	.cfi_offset 19, -32
	.cfi_offset 20, -24
	.loc 1 755 0
	mov	x19, x0
	mov	x0, x1
.LVL56:
	.loc 1 756 0
	ldr	w5, [x19,84]
	cmp	w5, 1
	bne	.L42
	ldr	x5, [x19,88]
.LBB1712:
.LBB1713:
.LBB1714:
.LBB1715:
	.loc 1 645 0
	tbz	x5, 3, .L33
	.loc 1 646 0
	tbnz	x5, 11, .L43
.LBB1716:
.LBB1717:
	.file 8 "/mnt/disk/jenkins/ci/workspace/chipset_pipeline_release/opensource/component_code/vendor/huawei/extra/build/build_script/kirin_kernel_release/kernel/arch/arm64/include/asm/atomic_ll_sc.h"
	.loc 8 113 0
	add	x6, x2, 12
#APP
// 113 "/mnt/disk/jenkins/ci/workspace/chipset_pipeline_release/opensource/component_code/vendor/huawei/extra/build/build_script/kirin_kernel_release/kernel/arch/arm64/include/asm/atomic_ll_sc.h" 1
	// atomic_add_return
	prfm	pstl1strm, [x6]
1:	ldxr	w5, [x6]
	add	w5, w5, 1
	stlxr	w1, w5, [x6]
	cbnz	w1, 1b
	dmb ish
// 0 "" 2
.LVL57:
#NO_APP
.LBE1717:
.LBE1716:
	.loc 1 655 0
	ldr	w1, [x2,328]
.LVL58:
	cmp	w5, w1
	bgt	.L38
.LVL59:
.L35:
.LBE1715:
.LBE1714:
	.loc 1 735 0
	ldr	x4, [x4,280]
.LVL60:
	mov	x1, x3
.LVL61:
	str	x2, [x29,40]
	ldr	x3, [x4]
.LVL62:
	blr	x3
.LVL63:
	mov	w20, w0
.LVL64:
	.loc 1 737 0
	mov	w1, 6
	mov	x0, x19
	bl	hisi_blk_latency_req_check
.LVL65:
	.loc 1 739 0
	ldr	x2, [x29,40]
.LVL66:
	cbnz	w20, .L41
	mov	w0, 0
.LVL67:
.L32:
.LBE1713:
.LBE1712:
	.loc 1 759 0
	ldp	x19, x20, [sp,16]
	.cfi_remember_state
	.cfi_restore 20
	.cfi_restore 19
.LVL68:
	ldp	x29, x30, [sp], 48
	.cfi_restore 30
	.cfi_restore 29
	.cfi_def_cfa 31, 0
	ret
.LVL69:
.L42:
	.cfi_restore_state
	.loc 1 757 0
	ldr	x2, [x4,280]
.LVL70:
	mov	x1, x3
	ldr	x2, [x2]
	blr	x2
.LVL71:
	.loc 1 759 0
	ldp	x19, x20, [sp,16]
	.cfi_remember_state
	.cfi_restore 19
	.cfi_restore 20
.LVL72:
	ldp	x29, x30, [sp], 48
	.cfi_restore 29
	.cfi_restore 30
	.cfi_def_cfa 31, 0
	ret
.LVL73:
.L33:
	.cfi_restore_state
.LBB1749:
.LBB1747:
.LBB1724:
.LBB1722:
.LBB1718:
.LBB1719:
	.loc 8 113 0
	add	x6, x2, 16
#APP
// 113 "/mnt/disk/jenkins/ci/workspace/chipset_pipeline_release/opensource/component_code/vendor/huawei/extra/build/build_script/kirin_kernel_release/kernel/arch/arm64/include/asm/atomic_ll_sc.h" 1
	// atomic_add_return
	prfm	pstl1strm, [x6]
1:	ldxr	w5, [x6]
	add	w5, w5, 1
	stlxr	w1, w5, [x6]
	cbnz	w1, 1b
	dmb ish
// 0 "" 2
.LVL74:
#NO_APP
.LBE1719:
.LBE1718:
	.loc 1 670 0
	ldr	w1, [x2,332]
.LVL75:
	cmp	w5, w1
	ble	.L35
.LVL76:
.L38:
	.loc 1 660 0
	mov	w0, 2
.LVL77:
	mov	w20, 1
.LVL78:
	str	w0, [x19,276]
.L37:
	ldr	x0, [x19,88]
.LBE1722:
.LBE1724:
.LBB1725:
.LBB1726:
	.loc 1 697 0
	tbz	x0, 3, .L39
	.loc 1 698 0
	tbnz	x0, 11, .L44
.LBB1727:
.LBB1728:
	.loc 8 114 0
	add	x2, x2, 12
.LVL79:
#APP
// 114 "/mnt/disk/jenkins/ci/workspace/chipset_pipeline_release/opensource/component_code/vendor/huawei/extra/build/build_script/kirin_kernel_release/kernel/arch/arm64/include/asm/atomic_ll_sc.h" 1
	// atomic_sub
	prfm	pstl1strm, [x2]
1:	ldxr	w0, [x2]
	sub	w0, w0, 1
	stxr	w1, w0, [x2]
	cbnz	w1, 1b
// 0 "" 2
.LVL80:
#NO_APP
.LBE1728:
.LBE1727:
.LBE1726:
.LBE1725:
	.loc 1 751 0
	mov	w0, w20
.LVL81:
.LBE1747:
.LBE1749:
	.loc 1 759 0
	ldp	x19, x20, [sp,16]
	.cfi_remember_state
	.cfi_restore 19
	.cfi_restore 20
.LVL82:
	ldp	x29, x30, [sp], 48
	.cfi_restore 29
	.cfi_restore 30
	.cfi_def_cfa 31, 0
	ret
.LVL83:
.L41:
	.cfi_restore_state
.LBB1750:
.LBB1748:
	.loc 1 742 0
	mov	w0, 1
	str	w0, [x19,276]
.LBB1735:
.LBB1736:
.LBB1737:
	.loc 2 247 0 discriminator 4
	ldr	w3, [x2,8]
.LBE1737:
.LBE1736:
.LBE1735:
.LBB1738:
.LBB1739:
.LBB1740:
	ldr	w0, [x2,12]
.LBE1740:
.LBE1739:
.LBE1738:
.LBB1741:
.LBB1742:
.LBB1743:
	ldr	w1, [x2,16]
.LBE1743:
.LBE1742:
.LBE1741:
	.loc 1 744 0 discriminator 11
	add	w0, w3, w0
	.loc 1 744 0 is_stmt 0 discriminator 17
	add	w0, w0, w1
	cmp	w0, 8
	bgt	.L37
	.loc 1 745 0 is_stmt 1
	mov	w0, 3
	str	w0, [x19,276]
	b	.L37
.LVL84:
.L43:
.LBB1744:
.LBB1723:
.LBB1720:
.LBB1721:
	.loc 8 113 0
	add	x6, x2, 8
#APP
// 113 "/mnt/disk/jenkins/ci/workspace/chipset_pipeline_release/opensource/component_code/vendor/huawei/extra/build/build_script/kirin_kernel_release/kernel/arch/arm64/include/asm/atomic_ll_sc.h" 1
	// atomic_add
	prfm	pstl1strm, [x6]
1:	ldxr	w1, [x6]
	add	w1, w1, 1
	stxr	w5, w1, [x6]
	cbnz	w5, 1b
// 0 "" 2
.LVL85:
#NO_APP
	b	.L35
.LVL86:
.L39:
.LBE1721:
.LBE1720:
.LBE1723:
.LBE1744:
.LBB1745:
.LBB1733:
.LBB1729:
.LBB1730:
	.loc 8 114 0
	add	x2, x2, 16
.LVL87:
#APP
// 114 "/mnt/disk/jenkins/ci/workspace/chipset_pipeline_release/opensource/component_code/vendor/huawei/extra/build/build_script/kirin_kernel_release/kernel/arch/arm64/include/asm/atomic_ll_sc.h" 1
	// atomic_sub
	prfm	pstl1strm, [x2]
1:	ldxr	w0, [x2]
	sub	w0, w0, 1
	stxr	w1, w0, [x2]
	cbnz	w1, 1b
// 0 "" 2
.LVL88:
#NO_APP
.LBE1730:
.LBE1729:
.LBE1733:
.LBE1745:
	.loc 1 751 0
	mov	w0, w20
.LVL89:
	b	.L32
.LVL90:
.L44:
.LBB1746:
.LBB1734:
.LBB1731:
.LBB1732:
	.loc 8 114 0
	add	x2, x2, 8
.LVL91:
#APP
// 114 "/mnt/disk/jenkins/ci/workspace/chipset_pipeline_release/opensource/component_code/vendor/huawei/extra/build/build_script/kirin_kernel_release/kernel/arch/arm64/include/asm/atomic_ll_sc.h" 1
	// atomic_sub
	prfm	pstl1strm, [x2]
1:	ldxr	w0, [x2]
	sub	w0, w0, 1
	stxr	w1, w0, [x2]
	cbnz	w1, 1b
// 0 "" 2
.LVL92:
#NO_APP
.LBE1732:
.LBE1731:
.LBE1734:
.LBE1746:
	.loc 1 751 0
	mov	w0, w20
.LVL93:
	b	.L32
.LBE1748:
.LBE1750:
	.cfi_endproc
.LFE3164:
	.size	ufs_mq_queue_rq, .-ufs_mq_queue_rq
	.align	2
	.type	ufs_mq_insert_async_list, %function
ufs_mq_insert_async_list:
.LFB3188:
	.loc 1 1195 0
	.cfi_startproc
.LVL94:
	stp	x29, x30, [sp, -64]!
	.cfi_def_cfa_offset 64
	.cfi_offset 29, -64
	.cfi_offset 30, -56
	add	x29, sp, 0
	.cfi_def_cfa_register 29
	stp	x19, x20, [sp,16]
	.cfi_offset 19, -48
	.cfi_offset 20, -40
	mov	x19, x1
	str	x23, [sp,48]
	stp	x21, x22, [sp,32]
	.cfi_offset 23, -16
	.cfi_offset 21, -32
	.cfi_offset 22, -24
	.loc 1 1199 0
	mov	w1, 5
.LVL95:
	.loc 1 1195 0
	mov	x22, x0
	.loc 1 1197 0
	ldr	x20, [x19,13016]
.LVL96:
	.loc 1 1199 0
	bl	hisi_blk_latency_req_check
.LVL97:
	.loc 1 1200 0
	ldr	x0, [x19,13024]
	cbz	x0, .L45
	.loc 1 1200 0 is_stmt 0 discriminator 1
	ldr	x21, [x0,208]
	cbz	x21, .L45
.LBB1751:
	.loc 1 1202 0 is_stmt 1
	ldr	x0, [x21]
	ldr	x0, [x0,16]
	cbz	x0, .L45
.LBB1752:
.LBB1753:
	.file 9 "/mnt/disk/jenkins/ci/workspace/chipset_pipeline_release/opensource/component_code/vendor/huawei/extra/build/build_script/kirin_kernel_release/kernel/include/linux/spinlock.h"
	.loc 9 291 0
	add	x20, x20, 304
.LVL98:
.LBE1753:
.LBE1752:
	.loc 1 1203 0 discriminator 1
	mov	x0, x20
	bl	_raw_spin_lock_irqsave
.LVL99:
	mov	x23, x0
.LVL100:
	.loc 1 1204 0
	ldr	x2, [x21]
	mov	x0, x22
	mov	x1, x19
	ldr	x2, [x2,16]
	blr	x2
.LVL101:
.LBB1754:
.LBB1755:
	.loc 9 362 0
	mov	x0, x20
	mov	x1, x23
	bl	_raw_spin_unlock_irqrestore
.LVL102:
.L45:
.LBE1755:
.LBE1754:
.LBE1751:
	.loc 1 1208 0
	ldp	x19, x20, [sp,16]
	.cfi_restore 20
	.cfi_restore 19
.LVL103:
	ldp	x21, x22, [sp,32]
	.cfi_restore 22
	.cfi_restore 21
.LVL104:
	ldr	x23, [sp,48]
	.cfi_restore 23
.LVL105:
	ldp	x29, x30, [sp], 64
	.cfi_restore 30
	.cfi_restore 29
	.cfi_def_cfa 31, 0
	ret
	.cfi_endproc
.LFE3188:
	.size	ufs_mq_insert_async_list, .-ufs_mq_insert_async_list
	.align	2
	.type	ufs_mq_run_delay_queue, %function
ufs_mq_run_delay_queue:
.LFB3217:
	.loc 1 1649 0
	.cfi_startproc
.LVL106:
	stp	x29, x30, [sp, -64]!
	.cfi_def_cfa_offset 64
	.cfi_offset 29, -64
	.cfi_offset 30, -56
.LBB1756:
.LBB1757:
.LBB1758:
.LBB1759:
	.file 10 "/mnt/disk/jenkins/ci/workspace/chipset_pipeline_release/opensource/component_code/vendor/huawei/extra/build/build_script/kirin_kernel_release/kernel/include/linux/workqueue.h"
	.loc 10 492 0
	mov	x3, 0
.LBE1759:
.LBE1758:
.LBE1757:
.LBE1756:
	.loc 1 1649 0
	add	x29, sp, 0
	.cfi_def_cfa_register 29
	stp	x19, x20, [sp,16]
	.cfi_offset 19, -48
	.cfi_offset 20, -40
	mov	x19, x0
.LBB1766:
.LBB1764:
.LBB1762:
.LBB1760:
	.loc 10 492 0
	mov	w0, 8
.LVL107:
.LBE1760:
.LBE1762:
.LBE1764:
.LBE1766:
	.loc 1 1649 0
	stp	x21, x22, [sp,32]
	.cfi_offset 21, -32
	.cfi_offset 22, -24
.LBB1767:
.LBB1765:
	.loc 1 764 0
	adrp	x22, .LANCHOR0
	ldr	x2, [x19,13016]
.LBB1763:
.LBB1761:
	.loc 10 492 0
	ldr	x1, [x22,#:lo12:.LANCHOR0]
	add	x2, x2, 24
	bl	queue_delayed_work_on
.LVL108:
.LBE1761:
.LBE1763:
.LBE1765:
.LBE1767:
.LBB1768:
.LBB1769:
	.loc 1 1231 0
	ldr	x0, [x19,13024]
	.loc 1 1230 0
	ldr	x2, [x19,13016]
.LVL109:
	.loc 1 1231 0
	cbz	x0, .L57
	.loc 1 1231 0 is_stmt 0 discriminator 1
	ldr	x21, [x0,208]
	cbz	x21, .L57
.LBB1770:
	.loc 1 1233 0 is_stmt 1
	ldr	x0, [x21]
	ldr	x0, [x0,48]
	cbz	x0, .L57
.LBB1771:
.LBB1772:
	.loc 9 291 0
	add	x20, x2, 304
.LBE1772:
.LBE1771:
	.loc 1 1234 0 discriminator 1
	mov	x0, x20
	bl	_raw_spin_lock_irqsave
.LVL110:
	str	x0, [x29,56]
	.loc 1 1235 0
	ldr	x2, [x21]
	mov	x0, x19
.LVL111:
	ldr	x2, [x2,48]
	blr	x2
.LVL112:
	uxtb	w21, w0
.LVL113:
.LBB1773:
.LBB1774:
	.loc 9 362 0
	ldr	x1, [x29,56]
.LVL114:
	mov	x0, x20
	bl	_raw_spin_unlock_irqrestore
.LVL115:
.LBE1774:
.LBE1773:
.LBE1770:
.LBE1769:
.LBE1768:
	.loc 1 1651 0
	cbz	w21, .L62
	.loc 1 1654 0
	ldp	x19, x20, [sp,16]
	.cfi_remember_state
	.cfi_restore 20
	.cfi_restore 19
.LVL116:
	ldp	x21, x22, [sp,32]
	.cfi_restore 22
	.cfi_restore 21
.LVL117:
	mov	w0, 0
	ldp	x29, x30, [sp], 64
	.cfi_restore 30
	.cfi_restore 29
	.cfi_def_cfa 31, 0
	ret
.LVL118:
.L62:
	.cfi_restore_state
	ldr	x2, [x19,13016]
.LVL119:
.L57:
.LBB1775:
.LBB1776:
	.loc 1 1185 0
	add	x22, x22, :lo12:.LANCHOR0
.LBB1777:
.LBB1778:
	.loc 10 492 0
	add	x2, x2, 128
.LVL120:
	mov	x3, 0
	mov	w0, 8
	ldr	x1, [x22,8]
	bl	queue_delayed_work_on
.LVL121:
.LBE1778:
.LBE1777:
.LBE1776:
.LBE1775:
	.loc 1 1654 0
	mov	w0, 0
	ldp	x19, x20, [sp,16]
	.cfi_restore 19
	.cfi_restore 20
.LVL122:
	ldp	x21, x22, [sp,32]
	.cfi_restore 21
	.cfi_restore 22
.LVL123:
	ldp	x29, x30, [sp], 64
	.cfi_restore 29
	.cfi_restore 30
	.cfi_def_cfa 31, 0
	ret
	.cfi_endproc
.LFE3217:
	.size	ufs_mq_run_delay_queue, .-ufs_mq_run_delay_queue
	.align	2
	.type	ufs_mq_async_sched_fifo_attempt_merge_bio, %function
ufs_mq_async_sched_fifo_attempt_merge_bio:
.LFB3184:
	.loc 1 1147 0
	.cfi_startproc
.LVL124:
	stp	x29, x30, [sp, -64]!
	.cfi_def_cfa_offset 64
	.cfi_offset 29, -64
	.cfi_offset 30, -56
	add	x29, sp, 0
	.cfi_def_cfa_register 29
	stp	x21, x22, [sp,32]
	str	x23, [sp,48]
	.cfi_offset 21, -32
	.cfi_offset 22, -24
	.cfi_offset 23, -16
	mov	x21, x0
	stp	x19, x20, [sp,16]
	.cfi_offset 19, -48
	.cfi_offset 20, -40
	.loc 1 1147 0
	mov	x23, x1
	.loc 1 1149 0
	ldr	x0, [x1,13016]
.LVL125:
	.loc 1 1150 0 discriminator 1
	add	x22, x0, 264
.LBB1779:
	.loc 1 1150 0 is_stmt 0
	ldr	x19, [x0,272]
.LVL126:
.LBE1779:
	.loc 1 1150 0 discriminator 1
	cmp	x22, x19
.LBB1780:
	.loc 1 1150 0
	sub	x19, x19, #440
.LVL127:
.LBE1780:
	.loc 1 1150 0 discriminator 1
	bne	.L74
	b	.L68
.LVL128:
.L70:
.LBB1781:
	.loc 1 1150 0 discriminator 2
	ldr	x19, [x19,448]
.LVL129:
.LBE1781:
	.loc 1 1150 0 discriminator 1
	cmp	x22, x19
.LBB1782:
	.loc 1 1150 0 discriminator 2
	sub	x19, x19, #440
.LVL130:
.LBE1782:
	.loc 1 1150 0 discriminator 1
	beq	.L68
.LVL131:
.L74:
.LBB1783:
	.loc 1 1152 0 is_stmt 1
	mov	x0, x19
.LVL132:
	mov	x1, x21
	bl	blk_rq_merge_ok
.LVL133:
	uxtb	w20, w0
	cbz	w20, .L70
	.loc 1 1154 0
	mov	x1, x21
	mov	x0, x19
	bl	blk_try_merge
.LVL134:
	.loc 1 1155 0
	cmp	w0, 2
	beq	.L78
	.loc 1 1158 0
	cmp	w0, 1
	bne	.L70
	.loc 1 1159 0
	mov	x1, x19
	mov	x0, x23
.LVL135:
	mov	x2, x21
	bl	bio_attempt_front_merge
.LVL136:
	uxtb	w0, w0
	cbz	w0, .L70
.L65:
.LBE1783:
	.loc 1 1164 0
	mov	w0, w20
	ldr	x23, [sp,48]
	.cfi_remember_state
	.cfi_restore 23
.LVL137:
	ldp	x19, x20, [sp,16]
	.cfi_restore 20
	.cfi_restore 19
.LVL138:
	ldp	x21, x22, [sp,32]
	.cfi_restore 22
	.cfi_restore 21
.LVL139:
	ldp	x29, x30, [sp], 64
	.cfi_restore 30
	.cfi_restore 29
	.cfi_def_cfa 31, 0
	ret
.LVL140:
.L78:
	.cfi_restore_state
.LBB1784:
	.loc 1 1156 0
	mov	x1, x19
	mov	x0, x23
.LVL141:
	mov	x2, x21
	bl	bio_attempt_back_merge
.LVL142:
	uxtb	w0, w0
	cbnz	w0, .L65
.LBE1784:
.LBB1785:
	.loc 1 1150 0 discriminator 2
	ldr	x19, [x19,448]
.LVL143:
.LBE1785:
	.loc 1 1150 0 is_stmt 0 discriminator 1
	cmp	x22, x19
.LBB1786:
	.loc 1 1150 0 discriminator 2
	sub	x19, x19, #440
.LVL144:
.LBE1786:
	.loc 1 1150 0 discriminator 1
	bne	.L74
.LVL145:
.L68:
	.loc 1 1163 0 is_stmt 1
	mov	w20, 0
	.loc 1 1164 0
	ldr	x23, [sp,48]
	.cfi_restore 23
.LVL146:
	mov	w0, w20
.LVL147:
	ldp	x19, x20, [sp,16]
	.cfi_restore 19
	.cfi_restore 20
.LVL148:
	ldp	x21, x22, [sp,32]
	.cfi_restore 21
	.cfi_restore 22
.LVL149:
	ldp	x29, x30, [sp], 64
	.cfi_restore 29
	.cfi_restore 30
	.cfi_def_cfa 31, 0
	ret
	.cfi_endproc
.LFE3184:
	.size	ufs_mq_async_sched_fifo_attempt_merge_bio, .-ufs_mq_async_sched_fifo_attempt_merge_bio
	.align	2
	.type	ufs_mq_dump_request, %function
ufs_mq_dump_request:
.LFB3221:
	.loc 1 1692 0
	.cfi_startproc
.LVL150:
	stp	x29, x30, [sp, -48]!
	.cfi_def_cfa_offset 48
	.cfi_offset 29, -48
	.cfi_offset 30, -40
	add	x29, sp, 0
	.cfi_def_cfa_register 29
	stp	x19, x20, [sp,16]
	stp	x21, x22, [sp,32]
	.cfi_offset 19, -32
	.cfi_offset 20, -24
	.cfi_offset 21, -16
	.cfi_offset 22, -8
	.loc 1 1693 0
	ldr	x19, [x0,13016]
.LVL151:
	.loc 1 1695 0
	cbz	x19, .L79
.LBB1787:
.LBB1788:
.LBB1789:
.LBB1790:
	.loc 2 247 0 discriminator 5
	ldr	x0, [x19,232]
.LVL152:
.LBE1790:
.LBE1789:
.LBE1788:
.LBE1787:
	.loc 1 1698 0
	add	x21, x19, 232
	mov	x20, x1
	cmp	x21, x0
	bne	.L81
.LVL153:
.L84:
.LBB1791:
.LBB1792:
.LBB1793:
.LBB1794:
	.loc 2 247 0 discriminator 5
	ldr	x0, [x19,248]
.LBE1794:
.LBE1793:
.LBE1792:
.LBE1791:
	.loc 1 1705 0
	add	x21, x19, 248
	cmp	x21, x0
	bne	.L95
.LVL154:
.L83:
.LBB1795:
.LBB1796:
.LBB1797:
.LBB1798:
	.loc 2 247 0 discriminator 5
	ldr	x0, [x19,264]
.LBE1798:
.LBE1797:
.LBE1796:
.LBE1795:
	.loc 1 1712 0
	add	x21, x19, 264
	cmp	x21, x0
	bne	.L96
.LVL155:
.L79:
	.loc 1 1719 0
	ldp	x19, x20, [sp,16]
	.cfi_remember_state
	.cfi_restore 20
	.cfi_restore 19
.LVL156:
	ldp	x21, x22, [sp,32]
	.cfi_restore 22
	.cfi_restore 21
.LVL157:
	ldp	x29, x30, [sp], 48
	.cfi_restore 30
	.cfi_restore 29
	.cfi_def_cfa 31, 0
	ret
.LVL158:
.L81:
	.cfi_restore_state
.LBB1799:
	.loc 1 1700 0
	adrp	x0, .LC2
	add	x0, x0, :lo12:.LC2
	bl	printk
.LVL159:
.LBB1800:
	.loc 1 1701 0
	ldr	x22, [x19,232]
.LVL160:
.LBE1800:
	.loc 1 1701 0 is_stmt 0 discriminator 1
	cmp	x21, x22
	beq	.L84
.L85:
	.loc 1 1702 0 is_stmt 1
	mov	x0, x22
	mov	x1, x20
	bl	hisi_blk_dump_request
.LVL161:
.LBB1801:
	.loc 1 1701 0 discriminator 3
	ldr	x22, [x22]
.LBE1801:
	.loc 1 1701 0 is_stmt 0 discriminator 1
	cmp	x21, x22
	bne	.L85
	b	.L84
.LVL162:
.L96:
.LBE1799:
.LBB1802:
	.loc 1 1714 0 is_stmt 1
	adrp	x0, .LC4
	add	x0, x0, :lo12:.LC4
	bl	printk
.LVL163:
.LBB1803:
	.loc 1 1715 0
	ldr	x19, [x19,264]
.LVL164:
.LBE1803:
	.loc 1 1715 0 is_stmt 0 discriminator 1
	cmp	x21, x19
.LBB1804:
	.loc 1 1715 0
	sub	x19, x19, #440
.LVL165:
.LBE1804:
	.loc 1 1715 0 discriminator 1
	beq	.L79
.L89:
	.loc 1 1716 0 is_stmt 1
	mov	x0, x19
	mov	x1, x20
	bl	hisi_blk_dump_request
.LVL166:
.LBB1805:
	.loc 1 1715 0 discriminator 3
	ldr	x19, [x19,440]
.LVL167:
.LBE1805:
	.loc 1 1715 0 is_stmt 0 discriminator 1
	cmp	x21, x19
.LBB1806:
	.loc 1 1715 0 discriminator 3
	sub	x19, x19, #440
.LVL168:
.LBE1806:
	.loc 1 1715 0 discriminator 1
	bne	.L89
	b	.L79
.LVL169:
.L95:
.LBE1802:
.LBB1807:
	.loc 1 1707 0 is_stmt 1
	adrp	x0, .LC3
	add	x0, x0, :lo12:.LC3
	bl	printk
.LVL170:
.LBB1808:
	.loc 1 1708 0
	ldr	x22, [x19,248]
.LVL171:
.LBE1808:
	.loc 1 1708 0 is_stmt 0 discriminator 1
	cmp	x21, x22
	beq	.L83
.L88:
	.loc 1 1709 0 is_stmt 1
	mov	x0, x22
	mov	x1, x20
	bl	hisi_blk_dump_request
.LVL172:
.LBB1809:
	.loc 1 1708 0 discriminator 3
	ldr	x22, [x22]
.LBE1809:
	.loc 1 1708 0 is_stmt 0 discriminator 1
	cmp	x21, x22
	bne	.L88
	b	.L83
.LBE1807:
	.cfi_endproc
.LFE3221:
	.size	ufs_mq_dump_request, .-ufs_mq_dump_request
	.align	2
	.type	ufs_mq_tag_sysfs_show, %function
ufs_mq_tag_sysfs_show:
.LFB3150:
	.loc 1 488 0 is_stmt 1
	.cfi_startproc
.LVL173:
	stp	x29, x30, [sp, -96]!
	.cfi_def_cfa_offset 96
	.cfi_offset 29, -96
	.cfi_offset 30, -88
	add	x29, sp, 0
	.cfi_def_cfa_register 29
	stp	x19, x20, [sp,16]
	stp	x21, x22, [sp,32]
	stp	x23, x24, [sp,48]
	stp	x25, x26, [sp,64]
	.cfi_offset 19, -80
	.cfi_offset 20, -72
	.cfi_offset 21, -64
	.cfi_offset 22, -56
	.cfi_offset 23, -48
	.cfi_offset 24, -40
	.cfi_offset 25, -32
	.cfi_offset 26, -24
	.loc 1 492 0
	cbz	x1, .L99
	.loc 1 495 0
	ldr	w0, [x1,60]
.LVL174:
	mov	x21, x2
	ldr	w5, [x1,8]
	mov	x26, x3
	ldr	w4, [x1,4]
	mov	w6, 1
	ldr	w3, [x1]
.LVL175:
	adrp	x2, .LC5
.LVL176:
	mov	x19, x1
	lsl	w6, w6, w0
	mov	x1, 4096
.LVL177:
	add	x2, x2, :lo12:.LC5
	mov	x0, x21
	.loc 1 503 0
	mov	x24, x1
	.loc 1 495 0
	bl	snprintf
.LVL178:
	mov	w20, w0
.LBB1810:
.LBB1811:
	.loc 1 157 0
	add	x0, x19, 56
	ldr	w25, [x19,56]
	bl	sbitmap_weight
.LVL179:
	sub	w3, w25, w0
.LBE1811:
.LBE1810:
.LBB1813:
.LBB1814:
	add	x0, x19, 112
	ldr	w23, [x19,112]
.LBE1814:
.LBE1813:
.LBB1817:
.LBB1812:
	str	x3, [x29,80]
.LBE1812:
.LBE1817:
.LBB1818:
.LBB1815:
	bl	sbitmap_weight
.LVL180:
	sub	w4, w23, w0
.LBE1815:
.LBE1818:
.LBB1819:
.LBB1820:
	add	x0, x19, 168
	ldr	w22, [x19,168]
.LBE1820:
.LBE1819:
.LBB1822:
.LBB1816:
	str	x4, [x29,88]
.LBE1816:
.LBE1822:
	.loc 1 503 0
	uxtw	x23, w20
.LBB1823:
.LBB1821:
	.loc 1 157 0
	bl	sbitmap_weight
.LVL181:
	sub	w5, w22, w0
.LBE1821:
.LBE1823:
	.loc 1 503 0
	ldr	x4, [x29,88]
	adrp	x2, .LC6
	ldr	x3, [x29,80]
	sub	x1, x24, x23
	add	x0, x21, x23
	add	x2, x2, :lo12:.LC6
	.loc 1 508 0
	mov	w23, 0
	.loc 1 503 0
	bl	snprintf
.LVL182:
	add	w1, w0, w20
.LBB1824:
.LBB1825:
.LBB1826:
	.loc 2 247 0 discriminator 4
	ldr	w3, [x19,48]
.LBE1826:
.LBE1825:
.LBE1824:
	.loc 1 504 0 discriminator 6
	adrp	x2, .LC7
	.loc 1 503 0
	mov	x20, x1
	.loc 1 504 0 discriminator 6
	add	x0, x21, x1
	add	x2, x2, :lo12:.LC7
	sub	x1, x24, x1
	bl	snprintf
.LVL183:
	.loc 1 506 0
	add	w0, w20, w0
	str	x0, [x26]
	.loc 1 509 0
	mov	w0, w23
	ldp	x19, x20, [sp,16]
	.cfi_remember_state
	.cfi_restore 20
	.cfi_restore 19
.LVL184:
	ldp	x21, x22, [sp,32]
	.cfi_restore 22
	.cfi_restore 21
.LVL185:
	ldp	x23, x24, [sp,48]
	.cfi_restore 24
	.cfi_restore 23
	ldp	x25, x26, [sp,64]
	.cfi_restore 26
	.cfi_restore 25
.LVL186:
	ldp	x29, x30, [sp], 96
	.cfi_restore 30
	.cfi_restore 29
	.cfi_def_cfa 31, 0
	ret
.LVL187:
.L99:
	.cfi_restore_state
	.loc 1 493 0
	mov	w23, -22
	.loc 1 509 0
	mov	w0, w23
.LVL188:
	ldp	x19, x20, [sp,16]
	.cfi_restore 19
	.cfi_restore 20
	ldp	x21, x22, [sp,32]
	.cfi_restore 21
	.cfi_restore 22
	ldp	x23, x24, [sp,48]
	.cfi_restore 23
	.cfi_restore 24
	ldp	x25, x26, [sp,64]
	.cfi_restore 25
	.cfi_restore 26
	ldp	x29, x30, [sp], 96
	.cfi_restore 29
	.cfi_restore 30
	.cfi_def_cfa 31, 0
	ret
	.cfi_endproc
.LFE3150:
	.size	ufs_mq_tag_sysfs_show, .-ufs_mq_tag_sysfs_show
	.align	2
	.type	ufs_mq_tag_wakeup_all, %function
ufs_mq_tag_wakeup_all:
.LFB3149:
	.loc 1 479 0
	.cfi_startproc
.LVL189:
	stp	x29, x30, [sp, -32]!
	.cfi_def_cfa_offset 32
	.cfi_offset 29, -32
	.cfi_offset 30, -24
	add	x29, sp, 0
	.cfi_def_cfa_register 29
	str	x19, [sp,16]
	.cfi_offset 19, -16
	.loc 1 479 0
	mov	x19, x0
	.loc 1 481 0
	add	x0, x0, 56
.LVL190:
	bl	sbitmap_queue_wake_all
.LVL191:
	.loc 1 482 0
	add	x0, x19, 112
	bl	sbitmap_queue_wake_all
.LVL192:
	.loc 1 483 0
	add	x0, x19, 168
	bl	sbitmap_queue_wake_all
.LVL193:
	.loc 1 485 0
	ldr	x19, [sp,16]
	.cfi_restore 19
.LVL194:
	mov	w0, 0
	ldp	x29, x30, [sp], 32
	.cfi_restore 30
	.cfi_restore 29
	.cfi_def_cfa 31, 0
	ret
	.cfi_endproc
.LFE3149:
	.size	ufs_mq_tag_wakeup_all, .-ufs_mq_tag_wakeup_all
	.align	2
	.type	ufs_tagset_bt_for_each, %function
ufs_tagset_bt_for_each:
.LFB3135:
	.loc 1 198 0
	.cfi_startproc
.LVL195:
	stp	x29, x30, [sp, -96]!
	.cfi_def_cfa_offset 96
	.cfi_offset 29, -96
	.cfi_offset 30, -88
	add	x29, sp, 0
	.cfi_def_cfa_register 29
	stp	x21, x22, [sp,32]
	stp	x23, x24, [sp,48]
	stp	x25, x26, [sp,64]
	stp	x27, x28, [sp,80]
	stp	x19, x20, [sp,16]
	.cfi_offset 21, -64
	.cfi_offset 22, -56
	.cfi_offset 23, -48
	.cfi_offset 24, -40
	.cfi_offset 25, -32
	.cfi_offset 26, -24
	.cfi_offset 27, -16
	.cfi_offset 28, -8
	.cfi_offset 19, -80
	.cfi_offset 20, -72
	.loc 1 198 0
	mov	x26, x2
	mov	x24, x1
.LBB1832:
.LBB1833:
	.file 11 "/mnt/disk/jenkins/ci/workspace/chipset_pipeline_release/opensource/component_code/vendor/huawei/extra/build/build_script/kirin_kernel_release/kernel/include/linux/sbitmap.h"
	.loc 11 211 0 discriminator 1
	ldr	w2, [x1,8]
.LVL196:
.LBE1833:
.LBE1832:
	.loc 1 198 0
	mov	x28, x0
	mov	x25, x3
	uxtb	w21, w4
.LVL197:
	uxtb	w22, w5
.LVL198:
.LBB1844:
.LBB1842:
	.loc 11 211 0 discriminator 1
	mov	w23, 0
.LVL199:
	cbz	w2, .L101
.LVL200:
.L118:
.LBB1834:
	.loc 11 212 0
	ubfiz	x0, x23, 6, 32
	ldr	x1, [x24,16]
	add	x27, x1, x0
	.loc 11 215 0
	ldr	x0, [x1,x0]
	cbz	x0, .L103
	ldr	x1, [x27,8]
	.loc 11 218 0
	mov	x2, 0
	.loc 11 221 0
	mov	x0, x27
	.loc 11 219 0
	ldr	w20, [x24,4]
.LVL201:
	.loc 11 221 0
	bl	find_next_bit
.LVL202:
	.loc 11 219 0
	lsl	w20, w23, w20
.LVL203:
	.loc 11 222 0
	ldr	x1, [x27,8]
	.loc 11 221 0
	mov	x19, x0
	.loc 11 222 0
	cmp	x1, x0, uxtw
	bls	.L124
.L123:
.LBB1835:
.LBB1836:
	.loc 1 164 0
	ldr	x2, [x28,184]
.LVL204:
.LBE1836:
.LBE1835:
	.loc 11 225 0
	add	w0, w20, w0
.LVL205:
.LBB1839:
.LBB1837:
	.loc 1 167 0
	cbz	w21, .L104
	.loc 1 168 0
	ldr	w3, [x2,16]
	add	w0, w0, w3
.L104:
	.loc 1 169 0
	cbz	w22, .L105
	.loc 1 170 0
	ldr	w3, [x2,20]
	add	w0, w0, w3
.L105:
	.loc 1 172 0
	ldr	x2, [x2,224]
.LVL206:
	.loc 1 174 0
	ldr	x3, [x28,120]
	.loc 1 172 0
	ldr	x2, [x2,w0,uxtw 3]
.LVL207:
	.loc 1 174 0
	ldr	x0, [x2,64]
.LVL208:
	cmp	x0, x3
	beq	.L125
.LBE1837:
.LBE1839:
	.loc 11 228 0
	add	w2, w19, 1
.LVL209:
.L126:
	.loc 11 221 0
	mov	x0, x27
	bl	find_next_bit
.LVL210:
	mov	x19, x0
	.loc 11 222 0
	ldr	x1, [x27,8]
	cmp	x1, x0, uxtw
	bhi	.L123
.L124:
	ldr	w2, [x24,8]
.LVL211:
.L103:
.LBE1834:
	.loc 11 211 0 discriminator 2
	add	w23, w23, 1
	.loc 11 211 0 is_stmt 0 discriminator 1
	cmp	w23, w2
	bcc	.L118
.LVL212:
.L101:
.LBE1842:
.LBE1844:
	.loc 1 208 0 is_stmt 1
	ldp	x19, x20, [sp,16]
	.cfi_remember_state
	.cfi_restore 20
	.cfi_restore 19
.LVL213:
	ldp	x21, x22, [sp,32]
	.cfi_restore 22
	.cfi_restore 21
.LVL214:
	ldp	x23, x24, [sp,48]
	.cfi_restore 24
	.cfi_restore 23
.LVL215:
	ldp	x25, x26, [sp,64]
	.cfi_restore 26
	.cfi_restore 25
.LVL216:
	ldp	x27, x28, [sp,80]
	.cfi_restore 28
	.cfi_restore 27
.LVL217:
	ldp	x29, x30, [sp], 96
	.cfi_restore 30
	.cfi_restore 29
	.cfi_def_cfa 31, 0
	ret
.LVL218:
.L125:
	.cfi_restore_state
.LBB1845:
.LBB1843:
.LBB1841:
.LBB1840:
.LBB1838:
	.loc 1 175 0
	mov	x1, x2
	mov	x0, x28
	mov	x2, x25
.LVL219:
	mov	w3, w21
	blr	x26
.LVL220:
	ldr	x1, [x27,8]
.LBE1838:
.LBE1840:
	.loc 11 228 0
	add	w2, w19, 1
	b	.L126
.LBE1841:
.LBE1843:
.LBE1845:
	.cfi_endproc
.LFE3135:
	.size	ufs_tagset_bt_for_each, .-ufs_tagset_bt_for_each
	.align	2
	.type	ufs_mq_tag_busy_iter, %function
ufs_mq_tag_busy_iter:
.LFB3148:
	.loc 1 454 0
	.cfi_startproc
.LVL221:
	stp	x29, x30, [sp, -64]!
	.cfi_def_cfa_offset 64
	.cfi_offset 29, -64
	.cfi_offset 30, -56
	add	x29, sp, 0
	.cfi_def_cfa_register 29
	stp	x23, x24, [sp,48]
	stp	x19, x20, [sp,16]
	stp	x21, x22, [sp,32]
	.cfi_offset 23, -16
	.cfi_offset 24, -8
	.cfi_offset 19, -48
	.cfi_offset 20, -40
	.cfi_offset 21, -32
	.cfi_offset 22, -24
	.loc 1 454 0
	mov	x24, x1
	mov	x22, x0
	.loc 1 458 0 discriminator 1
	ldr	w1, [x0,320]
.LVL222:
	.loc 1 454 0
	mov	x23, x2
	.loc 1 458 0 discriminator 1
	mov	w19, 0
.LVL223:
	cbnz	w1, .L144
	b	.L139
.LVL224:
.L135:
.LBB1846:
	.loc 1 470 0
	ldr	w0, [x21,4]
	cbnz	w0, .L146
.L130:
	.loc 1 472 0
	add	x1, x21, 56
	mov	x0, x20
	mov	x2, x24
	mov	x3, x23
	mov	w4, 0
	mov	w5, 0
	bl	ufs_tagset_bt_for_each
.LVL225:
	ldr	w1, [x22,320]
.LVL226:
.L133:
.LBE1846:
	.loc 1 458 0 discriminator 2
	add	w19, w19, 1
	.loc 1 458 0 is_stmt 0 discriminator 1
	cmp	w19, w1
	bcs	.L139
.L144:
.LBB1851:
	.loc 1 458 0 discriminator 3
	ldr	x0, [x22,312]
	ldr	x20, [x0,w19,sxtw 3]
.LBE1851:
.LBB1852:
.LBB1847:
.LBB1848:
	.loc 6 131 0 is_stmt 1
	ldr	w0, [x20,176]
.LBE1848:
.LBE1847:
	.loc 1 459 0
	ldr	x21, [x20,184]
.LBB1850:
.LBB1849:
	.loc 6 131 0 discriminator 1
	cbz	w0, .L133
	cbz	x21, .L133
.LBE1849:
.LBE1850:
	.loc 1 468 0
	ldr	w0, [x21,8]
	cbz	w0, .L135
	.loc 1 469 0
	mov	x0, x20
	add	x1, x21, 168
	mov	x2, x24
	mov	x3, x23
	mov	w4, 0
	mov	w5, 1
	bl	ufs_tagset_bt_for_each
.LVL227:
	.loc 1 470 0
	ldr	w0, [x21,4]
	cbz	w0, .L130
.L146:
	.loc 1 471 0
	mov	x0, x20
	add	x1, x21, 112
	mov	x2, x24
	mov	x3, x23
	mov	w4, 1
	mov	w5, 0
	bl	ufs_tagset_bt_for_each
.LVL228:
	b	.L130
.L139:
.LBE1852:
	.loc 1 476 0
	mov	w0, 0
	ldp	x19, x20, [sp,16]
	.cfi_restore 20
	.cfi_restore 19
.LVL229:
	ldp	x21, x22, [sp,32]
	.cfi_restore 22
	.cfi_restore 21
.LVL230:
	ldp	x23, x24, [sp,48]
	.cfi_restore 24
	.cfi_restore 23
.LVL231:
	ldp	x29, x30, [sp], 64
	.cfi_restore 30
	.cfi_restore 29
	.cfi_def_cfa 31, 0
	ret
	.cfi_endproc
.LFE3148:
	.size	ufs_mq_tag_busy_iter, .-ufs_mq_tag_busy_iter
	.align	2
	.type	ufs_tagset_bt_tags_for_each, %function
ufs_tagset_bt_tags_for_each:
.LFB3136:
	.loc 1 212 0
	.cfi_startproc
.LVL232:
	stp	x29, x30, [sp, -96]!
	.cfi_def_cfa_offset 96
	.cfi_offset 29, -96
	.cfi_offset 30, -88
	add	x29, sp, 0
	.cfi_def_cfa_register 29
	stp	x19, x20, [sp,16]
	stp	x23, x24, [sp,48]
	stp	x21, x22, [sp,32]
	stp	x25, x26, [sp,64]
	stp	x27, x28, [sp,80]
	.cfi_offset 19, -80
	.cfi_offset 20, -72
	.cfi_offset 23, -48
	.cfi_offset 24, -40
	.cfi_offset 21, -64
	.cfi_offset 22, -56
	.cfi_offset 25, -32
	.cfi_offset 26, -24
	.cfi_offset 27, -16
	.cfi_offset 28, -8
	.loc 1 212 0
	uxtb	w20, w4
.LVL233:
	uxtb	w24, w5
.LVL234:
	.loc 1 221 0
	ldr	x4, [x0,224]
	cbz	x4, .L147
.LBB1858:
.LBB1859:
	.loc 11 211 0 discriminator 1
	ldr	w21, [x1,8]
	cbz	w21, .L147
	mov	x22, x3
	mov	x23, x2
	mov	x26, x1
	mov	x28, x0
	mov	w25, 0
.LVL235:
.L154:
.LBB1860:
	.loc 11 212 0
	ubfiz	x0, x25, 6, 32
	ldr	x1, [x26,16]
	add	x27, x1, x0
	.loc 11 215 0
	ldr	x0, [x1,x0]
	cbz	x0, .L150
	.loc 11 219 0
	ldr	w21, [x26,4]
	.loc 11 218 0
	mov	x2, 0
	.loc 11 219 0
	lsl	w21, w25, w21
.LVL236:
.L153:
	.loc 11 221 0
	ldr	x1, [x27,8]
	mov	x0, x27
	bl	find_next_bit
.LVL237:
	mov	x19, x0
.LBB1861:
.LBB1862:
	.loc 1 192 0
	mov	x1, x22
.LBE1862:
.LBE1861:
	.loc 11 222 0
	ldr	x0, [x27,8]
.LBB1865:
.LBB1863:
	.loc 1 192 0
	mov	w2, w20
.LBE1863:
.LBE1865:
	.loc 11 222 0
	cmp	x0, x19, uxtw
	bls	.L170
	.loc 11 225 0
	add	w4, w21, w19
.LVL238:
.LBB1866:
.LBB1864:
	.loc 1 185 0
	cbz	w20, .L151
	.loc 1 186 0
	ldr	w0, [x28,16]
	add	w4, w4, w0
.L151:
	.loc 1 187 0
	cbz	w24, .L152
	.loc 1 188 0
	ldr	w0, [x28,20]
	add	w4, w4, w0
.L152:
	.loc 1 190 0
	ldr	x0, [x28,224]
	.loc 1 192 0
	ldr	x0, [x0,w4,uxtw 3]
	blr	x23
.LVL239:
.LBE1864:
.LBE1866:
	.loc 11 228 0
	add	w2, w19, 1
	b	.L153
.L170:
	ldr	w21, [x26,8]
.LVL240:
.L150:
.LBE1860:
	.loc 11 211 0 discriminator 2
	add	w25, w25, 1
	.loc 11 211 0 is_stmt 0 discriminator 1
	cmp	w25, w21
	bcc	.L154
.L147:
.LBE1859:
.LBE1858:
	.loc 1 223 0 is_stmt 1
	ldp	x19, x20, [sp,16]
	.cfi_restore 20
	.cfi_restore 19
.LVL241:
	ldp	x21, x22, [sp,32]
	.cfi_restore 22
	.cfi_restore 21
	ldp	x23, x24, [sp,48]
	.cfi_restore 24
	.cfi_restore 23
.LVL242:
	ldp	x25, x26, [sp,64]
	.cfi_restore 26
	.cfi_restore 25
.LVL243:
	ldp	x27, x28, [sp,80]
	.cfi_restore 28
	.cfi_restore 27
.LVL244:
	ldp	x29, x30, [sp], 96
	.cfi_restore 30
	.cfi_restore 29
	.cfi_def_cfa 31, 0
	ret
	.cfi_endproc
.LFE3136:
	.size	ufs_tagset_bt_tags_for_each, .-ufs_tagset_bt_tags_for_each
	.align	2
	.type	ufs_tagset_all_tag_busy_iter, %function
ufs_tagset_all_tag_busy_iter:
.LFB3137:
	.loc 1 226 0
	.cfi_startproc
.LVL245:
	stp	x29, x30, [sp, -48]!
	.cfi_def_cfa_offset 48
	.cfi_offset 29, -48
	.cfi_offset 30, -40
	add	x29, sp, 0
	.cfi_def_cfa_register 29
	stp	x19, x20, [sp,16]
	str	x21, [sp,32]
	.cfi_offset 19, -32
	.cfi_offset 20, -24
	.cfi_offset 21, -16
	.loc 1 226 0
	mov	x21, x1
	mov	x19, x0
	mov	x20, x2
	.loc 1 227 0
	ldr	w1, [x0,8]
.LVL246:
	cbnz	w1, .L180
.L172:
	.loc 1 229 0
	ldr	w0, [x19,4]
	cbz	w0, .L173
	.loc 1 230 0
	mov	x0, x19
	add	x1, x19, 112
	mov	x2, x21
	mov	x3, x20
	mov	w4, 1
	mov	w5, 0
	bl	ufs_tagset_bt_tags_for_each
.LVL247:
.L173:
	.loc 1 231 0
	mov	x0, x19
	add	x1, x19, 56
.LVL248:
	mov	x2, x21
	mov	x3, x20
	mov	w4, 0
	mov	w5, 0
	bl	ufs_tagset_bt_tags_for_each
.LVL249:
	.loc 1 234 0
	ldr	x21, [sp,32]
	.cfi_remember_state
	.cfi_restore 21
.LVL250:
	mov	w0, 0
	ldp	x19, x20, [sp,16]
	.cfi_restore 20
	.cfi_restore 19
.LVL251:
	ldp	x29, x30, [sp], 48
	.cfi_restore 30
	.cfi_restore 29
	.cfi_def_cfa 31, 0
	ret
.LVL252:
.L180:
	.cfi_restore_state
	.loc 1 228 0
	add	x1, x0, 168
	mov	x2, x21
	mov	x3, x20
	mov	w4, 0
	mov	w5, 1
	bl	ufs_tagset_bt_tags_for_each
.LVL253:
	b	.L172
	.cfi_endproc
.LFE3137:
	.size	ufs_tagset_all_tag_busy_iter, .-ufs_tagset_all_tag_busy_iter
	.align	2
	.type	ufs_mq_tag_put, %function
ufs_mq_tag_put:
.LFB3143:
	.loc 1 367 0
	.cfi_startproc
.LVL254:
	stp	x29, x30, [sp, -32]!
	.cfi_def_cfa_offset 32
	.cfi_offset 29, -32
	.cfi_offset 30, -24
	add	x29, sp, 0
	.cfi_def_cfa_register 29
	stp	x19, x20, [sp,16]
	.cfi_offset 19, -16
	.cfi_offset 20, -8
	.loc 1 367 0
	mov	x20, x0
	.loc 1 368 0
	ldr	x19, [x0,184]
.LVL255:
	.loc 1 370 0
	ldr	w1, [x19,20]
.LVL256:
	cmp	w1, w2
	bls	.L185
	.loc 1 375 0
	ldr	w1, [x19,16]
	.loc 1 376 0
	ldr	x3, [x3,280]
.LVL257:
	.loc 1 375 0
	cmp	w2, w1
	bcs	.L186
	.loc 1 381 0
	mov	w1, w2
	ldr	w2, [x3,64]
.LVL258:
	add	x0, x19, 56
	bl	sbitmap_queue_clear
.LVL259:
.LBB1867:
.LBB1868:
	.loc 8 114 0
	add	x2, x19, 24
#APP
// 114 "/mnt/disk/jenkins/ci/workspace/chipset_pipeline_release/opensource/component_code/vendor/huawei/extra/build/build_script/kirin_kernel_release/kernel/arch/arm64/include/asm/atomic_ll_sc.h" 1
	// atomic_sub
	prfm	pstl1strm, [x2]
1:	ldxr	w0, [x2]
	sub	w0, w0, 1
	stxr	w1, w0, [x2]
	cbnz	w1, 1b
// 0 "" 2
.LVL260:
#NO_APP
.LBE1868:
.LBE1867:
	.loc 1 383 0
	ldr	x0, [x20,120]
.LVL261:
.LBB1869:
.LBB1870:
	.loc 8 114 0
	add	x0, x0, 1164
#APP
// 114 "/mnt/disk/jenkins/ci/workspace/chipset_pipeline_release/opensource/component_code/vendor/huawei/extra/build/build_script/kirin_kernel_release/kernel/arch/arm64/include/asm/atomic_ll_sc.h" 1
	// atomic_sub
	prfm	pstl1strm, [x0]
1:	ldxr	w1, [x0]
	sub	w1, w1, 1
	stxr	w2, w1, [x0]
	cbnz	w2, 1b
// 0 "" 2
.LVL262:
#NO_APP
.L183:
.LBE1870:
.LBE1869:
	.loc 1 386 0
	mov	w0, 0
	ldp	x19, x20, [sp,16]
	.cfi_remember_state
	.cfi_restore 20
	.cfi_restore 19
.LVL263:
	ldp	x29, x30, [sp], 32
	.cfi_restore 30
	.cfi_restore 29
	.cfi_def_cfa 31, 0
	ret
.LVL264:
.L185:
	.cfi_restore_state
	.loc 1 371 0
	ldr	x3, [x3,280]
.LVL265:
	sub	w1, w2, w1
	add	x0, x19, 168
.LVL266:
	ldr	w2, [x3,64]
.LVL267:
	bl	sbitmap_queue_clear
.LVL268:
.LBB1871:
.LBB1872:
	.loc 8 114 0
	add	x2, x19, 32
#APP
// 114 "/mnt/disk/jenkins/ci/workspace/chipset_pipeline_release/opensource/component_code/vendor/huawei/extra/build/build_script/kirin_kernel_release/kernel/arch/arm64/include/asm/atomic_ll_sc.h" 1
	// atomic_sub
	prfm	pstl1strm, [x2]
1:	ldxr	w0, [x2]
	sub	w0, w0, 1
	stxr	w1, w0, [x2]
	cbnz	w1, 1b
// 0 "" 2
.LVL269:
#NO_APP
.LBE1872:
.LBE1871:
	.loc 1 373 0
	ldr	x0, [x20,120]
.LVL270:
.LBB1873:
.LBB1874:
	.loc 8 114 0
	add	x0, x0, 1172
#APP
// 114 "/mnt/disk/jenkins/ci/workspace/chipset_pipeline_release/opensource/component_code/vendor/huawei/extra/build/build_script/kirin_kernel_release/kernel/arch/arm64/include/asm/atomic_ll_sc.h" 1
	// atomic_sub
	prfm	pstl1strm, [x0]
1:	ldxr	w1, [x0]
	sub	w1, w1, 1
	stxr	w2, w1, [x0]
	cbnz	w2, 1b
// 0 "" 2
.LVL271:
#NO_APP
.LBE1874:
.LBE1873:
	.loc 1 386 0
	mov	w0, 0
	ldp	x19, x20, [sp,16]
	.cfi_remember_state
	.cfi_restore 19
	.cfi_restore 20
.LVL272:
	ldp	x29, x30, [sp], 32
	.cfi_restore 29
	.cfi_restore 30
	.cfi_def_cfa 31, 0
	ret
.LVL273:
.L186:
	.cfi_restore_state
	.loc 1 376 0
	sub	w1, w2, w1
	ldr	w2, [x3,64]
.LVL274:
	add	x0, x19, 112
.LVL275:
	bl	sbitmap_queue_clear
.LVL276:
.LBB1875:
.LBB1876:
	.loc 8 114 0
	add	x2, x19, 28
#APP
// 114 "/mnt/disk/jenkins/ci/workspace/chipset_pipeline_release/opensource/component_code/vendor/huawei/extra/build/build_script/kirin_kernel_release/kernel/arch/arm64/include/asm/atomic_ll_sc.h" 1
	// atomic_sub
	prfm	pstl1strm, [x2]
1:	ldxr	w0, [x2]
	sub	w0, w0, 1
	stxr	w1, w0, [x2]
	cbnz	w1, 1b
// 0 "" 2
.LVL277:
#NO_APP
.LBE1876:
.LBE1875:
	.loc 1 378 0
	ldr	x0, [x20,120]
.LVL278:
.LBB1877:
.LBB1878:
	.loc 8 114 0
	add	x0, x0, 1168
#APP
// 114 "/mnt/disk/jenkins/ci/workspace/chipset_pipeline_release/opensource/component_code/vendor/huawei/extra/build/build_script/kirin_kernel_release/kernel/arch/arm64/include/asm/atomic_ll_sc.h" 1
	// atomic_sub
	prfm	pstl1strm, [x0]
1:	ldxr	w1, [x0]
	sub	w1, w1, 1
	stxr	w2, w1, [x0]
	cbnz	w2, 1b
// 0 "" 2
.LVL279:
#NO_APP
	b	.L183
.LBE1878:
.LBE1877:
	.cfi_endproc
.LFE3143:
	.size	ufs_mq_tag_put, .-ufs_mq_tag_put
	.align	2
	.type	ufs_tagset_bt_get, %function
ufs_tagset_bt_get:
.LFB3138:
	.loc 1 237 0
	.cfi_startproc
.LVL280:
	stp	x29, x30, [sp, -128]!
	.cfi_def_cfa_offset 128
	.cfi_offset 29, -128
	.cfi_offset 30, -120
.LBB1879:
.LBB1880:
	.loc 4 20 0
#APP
// 20 "/mnt/disk/jenkins/ci/workspace/chipset_pipeline_release/opensource/component_code/vendor/huawei/extra/build/build_script/kirin_kernel_release/kernel/arch/arm64/include/asm/current.h" 1
	mrs x4, sp_el0
// 0 "" 2
.LVL281:
#NO_APP
.LBE1880:
.LBE1879:
	.loc 1 237 0
	add	x29, sp, 0
	.cfi_def_cfa_register 29
	stp	x23, x24, [sp,48]
	.cfi_offset 23, -80
	.cfi_offset 24, -72
	adrp	x24, __stack_chk_guard
	.loc 1 239 0
	add	x3, x29, 104
	.loc 1 237 0
	stp	x21, x22, [sp,32]
	.loc 1 239 0
	stp	xzr, xzr, [x29,80]
	.loc 1 237 0
	ldr	x5, [x24,#:lo12:__stack_chk_guard]
	.cfi_offset 21, -96
	.cfi_offset 22, -88
	mov	x22, x0
	.loc 1 239 0
	adrp	x0, autoremove_wake_function
.LVL282:
	.loc 1 237 0
	str	x5, [x29,120]
	.loc 1 239 0
	add	x0, x0, :lo12:autoremove_wake_function
	str	x4, [x29,88]
	.loc 1 237 0
	stp	x19, x20, [sp,16]
	stp	x25, x26, [sp,64]
	.cfi_offset 19, -112
	.cfi_offset 20, -104
	.cfi_offset 25, -64
	.cfi_offset 26, -56
	.loc 1 239 0
	str	x0, [x29,96]
	.loc 1 237 0
	mov	x21, x2
	.loc 1 239 0
	str	x3, [x29,104]
	.loc 1 237 0
	mov	x23, x1
	.loc 1 239 0
	str	x3, [x29,112]
	.loc 1 242 0
	cbz	x2, .L190
	.loc 1 244 0
	mov	x0, x1
	bl	__sbitmap_queue_get
.LVL283:
	.loc 1 245 0
	cmn	w0, #1
	beq	.L219
.LVL284:
.L189:
	.loc 1 299 0
	ldr	x2, [x29,120]
	ldr	x1, [x24,#:lo12:__stack_chk_guard]
	cmp	x2, x1
	bne	.L220
	ldp	x19, x20, [sp,16]
	.cfi_remember_state
	.cfi_restore 20
	.cfi_restore 19
	ldp	x21, x22, [sp,32]
	.cfi_restore 22
	.cfi_restore 21
.LVL285:
	ldp	x23, x24, [sp,48]
	.cfi_restore 24
	.cfi_restore 23
.LVL286:
	ldp	x25, x26, [sp,64]
	.cfi_restore 26
	.cfi_restore 25
.LVL287:
	ldp	x29, x30, [sp], 128
	.cfi_restore 30
	.cfi_restore 29
	.cfi_def_cfa 31, 0
	ret
.LVL288:
.L219:
	.cfi_restore_state
	.loc 1 248 0
	ldr	w0, [x22,16]
	tbnz	x0, 0, .L190
.LBB1881:
.LBB1882:
.LBB1883:
.LBB1884:
.LBB1885:
	.loc 2 247 0 discriminator 4
	ldr	w19, [x21,180]
.LBE1885:
.LBE1884:
.LBE1883:
.LBB1886:
.LBB1887:
.LBB1888:
.LBB1889:
.LBB1890:
.LBB1891:
	.loc 8 292 0
	add	x4, x21, 180
.LBE1891:
.LBE1890:
.LBE1889:
.LBE1888:
.LBB1895:
.LBB1896:
.LBB1897:
	.loc 2 247 0 discriminator 4
	ldr	w25, [x21,180]
.LBE1897:
.LBE1896:
.LBE1895:
.LBE1887:
.LBE1886:
	.loc 11 361 0 discriminator 5
	ldr	x20, [x23,40]
	sbfiz	x0, x19, 6, 32
.LBB1903:
.LBB1901:
.LBB1898:
.LBB1899:
	.loc 11 340 0
	add	w26, w25, 1
.LBE1899:
.LBE1898:
.LBE1901:
.LBE1903:
	.loc 11 361 0 discriminator 5
	add	x20, x20, x0
.LVL289:
.LBB1904:
.LBB1902:
.LBB1900:
	.loc 11 347 0
	and	x1, x26, 7
	sxtw	x0, w25
.LBB1894:
.LBB1893:
.LBB1892:
	.loc 8 292 0
#APP
// 292 "/mnt/disk/jenkins/ci/workspace/chipset_pipeline_release/opensource/component_code/vendor/huawei/extra/build/build_script/kirin_kernel_release/kernel/arch/arm64/include/asm/atomic_ll_sc.h" 1
		prfm	pstl1strm, [x4]
1:	ldxr	w3, [x4]
	eor	w2, w3, w0
	cbnz	w2, 2f
	stlxr	w2, w1, [x4]
	cbnz	w2, 1b
	dmb ish
	mov	w3, w0
2:
// 0 "" 2
.LVL290:
#NO_APP
.LBE1892:
.LBE1893:
.LBE1894:
.LBE1900:
.LBE1902:
.LBE1904:
.LBE1882:
.LBE1881:
.LBB1905:
.LBB1906:
	.loc 6 95 0
	adrp	x26, .LC8
.LBE1906:
.LBE1905:
.LBB1918:
.LBB1919:
.LBB1920:
.LBB1921:
	.loc 6 82 0
	adrp	x25, cpu_number
	add	x25, x25, :lo12:cpu_number
.LVL291:
.LBE1921:
.LBE1920:
.LBE1919:
.LBE1918:
.LBB1944:
.LBB1915:
	.loc 6 95 0
	add	x26, x26, :lo12:.LC8
.LBE1915:
.LBE1944:
.LBB1945:
.LBB1940:
.LBB1933:
.LBB1924:
	.loc 6 82 0
	b	.L204
.LVL292:
.L201:
.LBE1924:
.LBE1933:
.LBE1940:
.LBE1945:
	.loc 1 293 0
	mov	x0, x20
	add	x1, x29, 80
	bl	finish_wait
.LVL293:
.LBB1946:
.LBB1947:
.LBB1948:
.LBB1949:
.LBB1950:
	.loc 2 247 0 discriminator 4
	ldr	w20, [x19,180]
.LBE1950:
.LBE1949:
.LBE1948:
.LBB1951:
.LBB1952:
.LBB1953:
.LBB1954:
.LBB1955:
	ldr	w0, [x19,180]
.LBE1955:
.LBE1954:
.LBE1953:
.LBB1956:
.LBB1957:
.LBB1958:
.LBB1959:
	.loc 8 292 0
	add	x4, x19, 180
.LBE1959:
.LBE1958:
.LBE1957:
.LBE1956:
.LBE1952:
.LBE1951:
	.loc 11 361 0 discriminator 5
	ldr	x1, [x23,40]
	sbfiz	x20, x20, 6, 32
.LBB1968:
.LBB1966:
.LBB1963:
.LBB1964:
	.loc 11 340 0
	add	w21, w0, 1
.LBE1964:
.LBE1963:
.LBE1966:
.LBE1968:
	.loc 11 361 0 discriminator 5
	add	x20, x1, x20
.LVL294:
.LBB1969:
.LBB1967:
.LBB1965:
	.loc 11 347 0
	sxtw	x0, w0
	and	x1, x21, 7
.LBB1962:
.LBB1961:
.LBB1960:
	.loc 8 292 0
#APP
// 292 "/mnt/disk/jenkins/ci/workspace/chipset_pipeline_release/opensource/component_code/vendor/huawei/extra/build/build_script/kirin_kernel_release/kernel/arch/arm64/include/asm/atomic_ll_sc.h" 1
		prfm	pstl1strm, [x4]
1:	ldxr	w3, [x4]
	eor	w2, w3, w0
	cbnz	w2, 2f
	stlxr	w2, w1, [x4]
	cbnz	w2, 1b
	dmb ish
	mov	w3, w0
2:
// 0 "" 2
.LVL295:
#NO_APP
.LBE1960:
.LBE1961:
.LBE1962:
.LBE1965:
.LBE1967:
.LBE1969:
.LBE1947:
.LBE1946:
.LBB1970:
.LBB1971:
	.loc 6 53 0
	mov	x21, x19
.LVL296:
.L204:
.LBE1971:
.LBE1970:
	.loc 1 253 0
	add	x20, x20, 8
.LVL297:
	add	x1, x29, 80
	mov	w2, 2
.LVL298:
	mov	x0, x20
	bl	prepare_to_wait
.LVL299:
	.loc 1 255 0
	mov	x0, x23
	bl	__sbitmap_queue_get
.LVL300:
	.loc 1 256 0
	cmn	w0, #1
	.loc 1 255 0
	mov	w19, w0
	.loc 1 256 0
	bne	.L191
	.loc 1 265 0
	cbz	x21, .L192
	.loc 1 266 0
	mov	x0, x21
	mov	w1, 0
	bl	blk_mq_run_hw_queue
.LVL301:
.L192:
	.loc 1 272 0
	mov	x0, x23
	bl	__sbitmap_queue_get
.LVL302:
	.loc 1 273 0
	cmn	w0, #1
	.loc 1 272 0
	mov	w19, w0
	.loc 1 273 0
	bne	.L191
	.loc 1 276 0
	ldr	x0, [x22,24]
.LBB1974:
.LBB1916:
	.loc 6 89 0
	ldr	x1, [x0,304]
	ldr	x1, [x1,13024]
	cbz	x1, .L196
	.loc 6 89 0 is_stmt 0 discriminator 1
	ldr	x1, [x1,80]
	cbz	x1, .L196
	.loc 6 90 0 is_stmt 1
	blr	x1
.LVL303:
	mov	w2, w0
.LVL304:
	.loc 6 91 0
	cbz	w0, .L198
	.loc 6 92 0
	cmn	w0, #1
	bne	.L221
.L196:
	.loc 6 93 0
.LBB1907:
.LBB1908:
.LBB1909:
.LBB1910:
.LBB1911:
	.loc 4 20 0
#APP
// 20 "/mnt/disk/jenkins/ci/workspace/chipset_pipeline_release/opensource/component_code/vendor/huawei/extra/build/build_script/kirin_kernel_release/kernel/arch/arm64/include/asm/current.h" 1
	mrs x1, sp_el0
// 0 "" 2
.LVL305:
#NO_APP
.LBE1911:
.LBE1910:
.LBE1909:
	.loc 5 68 0
	ldr	w0, [x1,24]
	sub	w0, w0, #1
	str	w0, [x1,24]
	cbnz	w0, .L198
.LBB1912:
.LBB1913:
.LBB1914:
	.loc 7 105 0
	ldr	x0, [x1]
.LBE1914:
.LBE1913:
.LBE1912:
	.loc 5 68 0 discriminator 1
	tbnz	x0, 1, .L222
.L198:
.LBE1908:
.LBE1907:
.LBE1916:
.LBE1974:
.LBB1975:
.LBB1976:
	.file 12 "/mnt/disk/jenkins/ci/workspace/chipset_pipeline_release/opensource/component_code/vendor/huawei/extra/build/build_script/kirin_kernel_release/kernel/include/linux/sched.h"
	.loc 12 562 0
	mov	x0, 9223372036854775807
	bl	io_schedule_timeout
.LVL306:
.LBE1976:
.LBE1975:
.LBB1977:
.LBB1941:
.LBB1934:
.LBB1925:
.LBB1926:
.LBB1927:
.LBB1928:
.LBB1929:
	.loc 4 20 0
#APP
// 20 "/mnt/disk/jenkins/ci/workspace/chipset_pipeline_release/opensource/component_code/vendor/huawei/extra/build/build_script/kirin_kernel_release/kernel/arch/arm64/include/asm/current.h" 1
	mrs x1, sp_el0
// 0 "" 2
.LVL307:
#NO_APP
.LBE1929:
.LBE1928:
.LBE1927:
	.loc 5 53 0
	ldr	w0, [x1,24]
.LBE1926:
.LBE1925:
.LBE1934:
.LBE1941:
.LBE1977:
	.loc 1 280 0
	ldr	x2, [x22]
.LBB1978:
.LBB1942:
.LBB1935:
.LBB1931:
.LBB1930:
	.loc 5 53 0
	add	w0, w0, 1
	str	w0, [x1,24]
.LBE1930:
.LBE1931:
	.loc 6 82 0
.LBB1932:
.LBB1922:
.LBB1923:
	.file 13 "/mnt/disk/jenkins/ci/workspace/chipset_pipeline_release/opensource/component_code/vendor/huawei/extra/build/build_script/kirin_kernel_release/kernel/arch/arm64/include/asm/percpu.h"
	.loc 13 34 0
#APP
// 34 "/mnt/disk/jenkins/ci/workspace/chipset_pipeline_release/opensource/component_code/vendor/huawei/extra/build/build_script/kirin_kernel_release/kernel/arch/arm64/include/asm/percpu.h" 1
	mrs x1, tpidr_el1
// 0 "" 2
.LVL308:
#NO_APP
.LBE1923:
.LBE1922:
.LBE1932:
.LBE1935:
.LBB1936:
.LBB1937:
	.loc 6 71 0
	ldr	w3, [x1,x25]
	adrp	x1, __per_cpu_offset
.LVL309:
	add	x1, x1, :lo12:__per_cpu_offset
	ldr	x0, [x2,296]
.LBE1937:
.LBE1936:
.LBE1942:
.LBE1978:
	.loc 1 281 0
	ldr	x2, [x22]
.LVL310:
.LBB1979:
.LBB1943:
.LBB1939:
.LBB1938:
	.loc 6 71 0
	ldr	x1, [x1,x3,lsl 3]
	add	x0, x0, x1
.LVL311:
.LBE1938:
.LBE1939:
.LBE1943:
.LBE1979:
	.loc 1 280 0
	str	x0, [x22,24]
.LBB1980:
.LBB1972:
	.loc 6 53 0
	ldr	x1, [x2,288]
.LBE1972:
.LBE1980:
	.loc 1 281 0
	ldr	w3, [x0,64]
.LBB1981:
.LBB1973:
	.loc 6 53 0
	ldr	x0, [x2,312]
	ldr	w1, [x1,w3,sxtw 2]
	ldr	x19, [x0,w1,uxtw 3]
.LBE1973:
.LBE1981:
	.loc 1 281 0
	str	x19, [x22,32]
	.loc 1 282 0
	cmp	x21, x19
	beq	.L201
	.loc 1 283 0
	ldr	x0, [x22,8]
	.loc 1 285 0
	ldr	x23, [x19,184]
.LVL312:
	.loc 1 283 0
	tbz	x0, 3, .L202
	.loc 1 284 0
	tbnz	x0, 11, .L203
	.loc 1 285 0
	add	x23, x23, 56
.LVL313:
	b	.L201
.LVL314:
.L191:
	.loc 1 297 0
	mov	x0, x20
	add	x1, x29, 80
	bl	finish_wait
.LVL315:
	.loc 1 298 0
	mov	w0, w19
	b	.L189
.LVL316:
.L222:
.LBB1982:
.LBB1917:
	.loc 6 93 0 discriminator 3
	bl	preempt_schedule
.LVL317:
	b	.L198
.LVL318:
.L221:
	.loc 6 95 0
	adrp	x1, .LANCHOR1
	mov	x0, x26
.LVL319:
	add	x1, x1, :lo12:.LANCHOR1
	bl	printk
.LVL320:
	b	.L198
.LVL321:
.L190:
.LBE1917:
.LBE1982:
	.loc 1 243 0
	mov	w0, -1
	b	.L189
.LVL322:
.L202:
	.loc 1 290 0
	add	x23, x23, 112
.LVL323:
	b	.L201
.LVL324:
.L203:
	.loc 1 287 0
	add	x23, x23, 168
.LVL325:
	b	.L201
.LVL326:
.L220:
	.loc 1 299 0
	bl	__stack_chk_fail
.LVL327:
	.cfi_endproc
.LFE3138:
	.size	ufs_tagset_bt_get, .-ufs_tagset_bt_get
	.align	2
	.type	ufs_mq_tag_get, %function
ufs_mq_tag_get:
.LFB3142:
	.loc 1 355 0
	.cfi_startproc
.LVL328:
	stp	x29, x30, [sp, -32]!
	.cfi_def_cfa_offset 32
	.cfi_offset 29, -32
	.cfi_offset 30, -24
	add	x29, sp, 0
	.cfi_def_cfa_register 29
	stp	x19, x20, [sp,16]
	.cfi_offset 19, -16
	.cfi_offset 20, -8
	.loc 1 355 0
	mov	x20, x1
	.loc 1 356 0
	mov	x1, 2056
.LVL329:
	ldr	x2, [x0,8]
	.loc 1 355 0
	mov	x19, x0
	.loc 1 356 0
	and	x1, x2, x1
.LVL330:
	.loc 1 357 0
	cmp	x1, 8
	bne	.L224
.LBB1983:
.LBB1984:
	.loc 1 304 0
	ldr	x1, [x0,32]
.LVL331:
	mov	x2, x1
	ldr	x1, [x1,184]
	add	x1, x1, 56
	bl	ufs_tagset_bt_get
.LVL332:
	.loc 1 305 0
	tbnz	w0, #31, .L233
	.loc 1 306 0
	ldr	x1, [x19,32]
	ldr	x1, [x1,184]
.LBB1985:
.LBB1986:
	.loc 8 113 0
	add	x1, x1, 24
#APP
// 113 "/mnt/disk/jenkins/ci/workspace/chipset_pipeline_release/opensource/component_code/vendor/huawei/extra/build/build_script/kirin_kernel_release/kernel/arch/arm64/include/asm/atomic_ll_sc.h" 1
	// atomic_add
	prfm	pstl1strm, [x1]
1:	ldxr	w2, [x1]
	add	w2, w2, 1
	stxr	w3, w2, [x1]
	cbnz	w3, 1b
// 0 "" 2
.LVL333:
#NO_APP
.LBE1986:
.LBE1985:
	.loc 1 307 0
	ldr	x1, [x19,32]
	ldr	x1, [x1,120]
.LBB1987:
.LBB1988:
	.loc 8 113 0
	add	x1, x1, 1164
#APP
// 113 "/mnt/disk/jenkins/ci/workspace/chipset_pipeline_release/opensource/component_code/vendor/huawei/extra/build/build_script/kirin_kernel_release/kernel/arch/arm64/include/asm/atomic_ll_sc.h" 1
	// atomic_add
	prfm	pstl1strm, [x1]
1:	ldxr	w2, [x1]
	add	w2, w2, 1
	stxr	w3, w2, [x1]
	cbnz	w3, 1b
// 0 "" 2
.LVL334:
#NO_APP
.L232:
.LBE1988:
.LBE1987:
.LBE1984:
.LBE1983:
	.loc 1 362 0
	str	w0, [x20]
.LVL335:
	.loc 1 364 0
	mov	w0, 0
	ldp	x19, x20, [sp,16]
	.cfi_remember_state
	.cfi_restore 20
	.cfi_restore 19
.LVL336:
	ldp	x29, x30, [sp], 32
	.cfi_restore 30
	.cfi_restore 29
	.cfi_def_cfa 31, 0
	ret
.LVL337:
.L233:
	.cfi_restore_state
.LBB1990:
.LBB1989:
	.loc 1 305 0
	mov	w0, -1
.LVL338:
.LBE1989:
.LBE1990:
	.loc 1 362 0
	str	w0, [x20]
	.loc 1 364 0
	mov	w0, 0
	ldp	x19, x20, [sp,16]
	.cfi_remember_state
	.cfi_restore 19
	.cfi_restore 20
.LVL339:
	ldp	x29, x30, [sp], 32
	.cfi_restore 29
	.cfi_restore 30
	.cfi_def_cfa 31, 0
	ret
.LVL340:
.L224:
	.cfi_restore_state
.LBB1991:
.LBB1992:
	.loc 1 337 0
	ldr	x2, [x0,32]
.LBE1992:
.LBE1991:
	.loc 1 359 0
	cmp	x1, 2056
.LBB1999:
.LBB1997:
	.loc 1 337 0
	ldr	x1, [x2,184]
.LVL341:
.LBE1997:
.LBE1999:
	.loc 1 359 0
	beq	.L235
.LBB2000:
.LBB2001:
	.loc 1 316 0
	ldr	w3, [x1,4]
	cbz	w3, .L233
	.loc 1 324 0
	add	x1, x1, 112
	bl	ufs_tagset_bt_get
.LVL342:
	.loc 1 325 0
	tbnz	w0, #31, .L233
	.loc 1 326 0
	ldr	x1, [x19,32]
	ldr	x1, [x1,184]
.LBB2002:
.LBB2003:
	.loc 8 113 0
	add	x1, x1, 28
#APP
// 113 "/mnt/disk/jenkins/ci/workspace/chipset_pipeline_release/opensource/component_code/vendor/huawei/extra/build/build_script/kirin_kernel_release/kernel/arch/arm64/include/asm/atomic_ll_sc.h" 1
	// atomic_add
	prfm	pstl1strm, [x1]
1:	ldxr	w2, [x1]
	add	w2, w2, 1
	stxr	w3, w2, [x1]
	cbnz	w3, 1b
// 0 "" 2
.LVL343:
#NO_APP
.LBE2003:
.LBE2002:
	.loc 1 327 0
	ldr	x1, [x19,32]
	ldr	x1, [x1,120]
.LBB2004:
.LBB2005:
	.loc 8 113 0
	add	x1, x1, 1168
#APP
// 113 "/mnt/disk/jenkins/ci/workspace/chipset_pipeline_release/opensource/component_code/vendor/huawei/extra/build/build_script/kirin_kernel_release/kernel/arch/arm64/include/asm/atomic_ll_sc.h" 1
	// atomic_add
	prfm	pstl1strm, [x1]
1:	ldxr	w2, [x1]
	add	w2, w2, 1
	stxr	w3, w2, [x1]
	cbnz	w3, 1b
// 0 "" 2
.LVL344:
#NO_APP
.LBE2005:
.LBE2004:
	.loc 1 328 0
	ldr	x1, [x19,32]
	ldr	x1, [x1,184]
	ldr	w1, [x1,16]
	add	w0, w0, w1
.LVL345:
	b	.L232
.LVL346:
.L235:
.LBE2001:
.LBE2000:
.LBB2006:
.LBB1998:
	.loc 1 337 0
	ldr	w3, [x1,8]
	cbz	w3, .L233
	.loc 1 345 0
	add	x1, x1, 168
	bl	ufs_tagset_bt_get
.LVL347:
	.loc 1 346 0
	tbnz	w0, #31, .L233
	.loc 1 347 0
	ldr	x1, [x19,32]
	ldr	x1, [x1,184]
.LBB1993:
.LBB1994:
	.loc 8 113 0
	add	x1, x1, 32
#APP
// 113 "/mnt/disk/jenkins/ci/workspace/chipset_pipeline_release/opensource/component_code/vendor/huawei/extra/build/build_script/kirin_kernel_release/kernel/arch/arm64/include/asm/atomic_ll_sc.h" 1
	// atomic_add
	prfm	pstl1strm, [x1]
1:	ldxr	w2, [x1]
	add	w2, w2, 1
	stxr	w3, w2, [x1]
	cbnz	w3, 1b
// 0 "" 2
.LVL348:
#NO_APP
.LBE1994:
.LBE1993:
	.loc 1 348 0
	ldr	x1, [x19,32]
	ldr	x1, [x1,120]
.LBB1995:
.LBB1996:
	.loc 8 113 0
	add	x1, x1, 1172
#APP
// 113 "/mnt/disk/jenkins/ci/workspace/chipset_pipeline_release/opensource/component_code/vendor/huawei/extra/build/build_script/kirin_kernel_release/kernel/arch/arm64/include/asm/atomic_ll_sc.h" 1
	// atomic_add
	prfm	pstl1strm, [x1]
1:	ldxr	w2, [x1]
	add	w2, w2, 1
	stxr	w3, w2, [x1]
	cbnz	w3, 1b
// 0 "" 2
.LVL349:
#NO_APP
.LBE1996:
.LBE1995:
	.loc 1 349 0
	ldr	x1, [x19,32]
	ldr	x1, [x1,184]
	ldr	w1, [x1,20]
	add	w0, w0, w1
.LVL350:
	b	.L232
.LBE1998:
.LBE2006:
	.cfi_endproc
.LFE3142:
	.size	ufs_mq_tag_get, .-ufs_mq_tag_get
	.align	2
	.type	ufs_mq_req_complete, %function
ufs_mq_req_complete:
.LFB3207:
	.loc 1 1521 0
	.cfi_startproc
.LVL351:
	stp	x29, x30, [sp, -32]!
	.cfi_def_cfa_offset 32
	.cfi_offset 29, -32
	.cfi_offset 30, -24
	uxtb	w2, w2
	add	x29, sp, 0
	.cfi_def_cfa_register 29
	stp	x19, x20, [sp,16]
	.cfi_offset 19, -16
	.cfi_offset 20, -8
	.loc 1 1521 0
	mov	x19, x0
	.loc 1 1522 0
	ldr	x20, [x1,13016]
.LVL352:
	.loc 1 1527 0 discriminator 1
	cbz	w2, .L237
	.loc 1 1527 0 is_stmt 0
	ldr	w0, [x0,84]
.LVL353:
	.loc 1 1527 0 discriminator 1
	cmp	w0, 1
	bne	.L237
	ldr	x0, [x19,88]
.LBB2007:
.LBB2008:
	.loc 1 697 0 is_stmt 1
	tbz	x0, 3, .L238
.LVL354:
	.loc 1 698 0
	tbnz	x0, 11, .L253
.LBB2009:
.LBB2010:
	.loc 8 114 0
	add	x2, x20, 12
.LVL355:
#APP
// 114 "/mnt/disk/jenkins/ci/workspace/chipset_pipeline_release/opensource/component_code/vendor/huawei/extra/build/build_script/kirin_kernel_release/kernel/arch/arm64/include/asm/atomic_ll_sc.h" 1
	// atomic_sub
	prfm	pstl1strm, [x2]
1:	ldxr	w0, [x2]
	sub	w0, w0, 1
	stxr	w1, w0, [x2]
	cbnz	w1, 1b
// 0 "" 2
.LVL356:
#NO_APP
.L240:
.LBE2010:
.LBE2009:
	.loc 1 712 0
	bl	ktime_get
.LVL357:
	str	x0, [x20,352]
.LVL358:
.L237:
.LBE2008:
.LBE2007:
	.loc 1 1529 0
	ldr	x3, [x19,72]
.LBB2016:
	adrp	x0, cpu_number
	add	x0, x0, :lo12:cpu_number
.LVL359:
.LBB2017:
.LBB2018:
	.loc 13 34 0
#APP
// 34 "/mnt/disk/jenkins/ci/workspace/chipset_pipeline_release/opensource/component_code/vendor/huawei/extra/build/build_script/kirin_kernel_release/kernel/arch/arm64/include/asm/percpu.h" 1
	mrs x2, tpidr_el1
// 0 "" 2
.LVL360:
#NO_APP
.LBE2018:
.LBE2017:
.LBE2016:
	.loc 1 1529 0
	ldr	w1, [x3,64]
.LVL361:
.LBB2019:
.LBE2019:
	ldr	w0, [x2,x0]
.LVL362:
	cmp	w1, w0
	beq	.L241
.LBB2020:
.LBB2021:
.LBB2022:
.LBB2023:
	.loc 7 105 0
	add	w0, w1, 63
	cmp	w1, wzr
	csel	w0, w0, w1, lt
	adrp	x2, __cpu_online_mask
.LVL363:
	asr	w0, w0, 6
	add	x2, x2, :lo12:__cpu_online_mask
	ldr	x0, [x2,w0,sxtw 3]
	lsr	x1, x0, x1
.LBE2023:
.LBE2022:
.LBE2021:
.LBE2020:
	.loc 1 1529 0 discriminator 1
	tbnz	x1, 0, .L254
.LVL364:
.L241:
.LBB2024:
.LBB2025:
.LBB2026:
.LBB2027:
	.file 14 "/mnt/disk/jenkins/ci/workspace/chipset_pipeline_release/opensource/component_code/vendor/huawei/extra/build/build_script/kirin_kernel_release/kernel/arch/arm64/include/asm/irqflags.h"
	.loc 14 29 0
#APP
// 29 "/mnt/disk/jenkins/ci/workspace/chipset_pipeline_release/opensource/component_code/vendor/huawei/extra/build/build_script/kirin_kernel_release/kernel/arch/arm64/include/asm/irqflags.h" 1
	mrs	x20, daif		// arch_local_irq_save
msr	daifset, #2
// 0 "" 2
.LVL365:
#NO_APP
.LBE2027:
.LBE2026:
.LBB2028:
	.loc 1 1448 0
	adrp	x0, blk_cpu_done
.LBE2028:
	.loc 1 1449 0
	add	x1, x19, 136
.LBB2031:
.LBB2029:
.LBB2030:
	.loc 13 34 0
#APP
// 34 "/mnt/disk/jenkins/ci/workspace/chipset_pipeline_release/opensource/component_code/vendor/huawei/extra/build/build_script/kirin_kernel_release/kernel/arch/arm64/include/asm/percpu.h" 1
	mrs x3, tpidr_el1
// 0 "" 2
.LVL366:
#NO_APP
.LBE2030:
.LBE2029:
	.loc 1 1448 0
	add	x0, x0, :lo12:blk_cpu_done
.LVL367:
	add	x2, x3, x0
.LVL368:
.LBE2031:
.LBB2032:
.LBB2033:
	.loc 3 92 0
	ldr	x4, [x2,8]
.LBB2034:
.LBB2035:
	.loc 3 62 0
	str	x1, [x2,8]
	.loc 3 63 0
	str	x2, [x19,136]
	.loc 3 64 0
	str	x4, [x19,144]
.LBB2036:
.LBB2037:
.LBB2038:
	.loc 2 276 0
	str	x1, [x4]
.LBE2038:
.LBE2037:
.LBE2036:
.LBE2035:
.LBE2034:
.LBE2033:
.LBE2032:
	.loc 1 1450 0
	ldr	x0, [x3,x0]
.LVL369:
	cmp	x1, x0
	bne	.L243
	.loc 1 1451 0
	mov	w0, 4
	bl	raise_softirq_irqoff
.LVL370:
.L243:
.LBB2039:
.LBB2040:
	.loc 14 81 0
#APP
// 81 "/mnt/disk/jenkins/ci/workspace/chipset_pipeline_release/opensource/component_code/vendor/huawei/extra/build/build_script/kirin_kernel_release/kernel/arch/arm64/include/asm/irqflags.h" 1
	msr	daif, x20		// arch_local_irq_restore
// 0 "" 2
#NO_APP
.LBE2040:
.LBE2039:
.LBE2025:
.LBE2024:
	.loc 1 1538 0
	mov	w0, 0
	ldp	x19, x20, [sp,16]
	.cfi_remember_state
	.cfi_restore 20
	.cfi_restore 19
.LVL371:
	ldp	x29, x30, [sp], 32
	.cfi_restore 30
	.cfi_restore 29
	.cfi_def_cfa 31, 0
	ret
.LVL372:
.L254:
	.cfi_restore_state
	.loc 1 1530 0
	adrp	x0, __ufs_mq_complete_request_remote
	.loc 1 1531 0
	str	x19, [x19,48]
	.loc 1 1532 0
	str	wzr, [x19,56]
	.loc 1 1530 0
	add	x0, x0, :lo12:__ufs_mq_complete_request_remote
	str	x0, [x19,40]
	.loc 1 1533 0
	add	x1, x19, 32
	ldr	w0, [x3,64]
	bl	smp_call_function_single_async
.LVL373:
	.loc 1 1538 0
	mov	w0, 0
	ldp	x19, x20, [sp,16]
	.cfi_remember_state
	.cfi_restore 19
	.cfi_restore 20
.LVL374:
	ldp	x29, x30, [sp], 32
	.cfi_restore 29
	.cfi_restore 30
	.cfi_def_cfa 31, 0
	ret
.LVL375:
.L238:
	.cfi_restore_state
.LBB2041:
.LBB2015:
.LBB2011:
.LBB2012:
	.loc 8 114 0
	add	x2, x20, 16
.LVL376:
#APP
// 114 "/mnt/disk/jenkins/ci/workspace/chipset_pipeline_release/opensource/component_code/vendor/huawei/extra/build/build_script/kirin_kernel_release/kernel/arch/arm64/include/asm/atomic_ll_sc.h" 1
	// atomic_sub
	prfm	pstl1strm, [x2]
1:	ldxr	w0, [x2]
	sub	w0, w0, 1
	stxr	w1, w0, [x2]
	cbnz	w1, 1b
// 0 "" 2
.LVL377:
#NO_APP
.LBE2012:
.LBE2011:
	.loc 1 720 0
	bl	ktime_get
.LVL378:
	str	x0, [x20,360]
	b	.L237
.LVL379:
.L253:
.LBB2013:
.LBB2014:
	.loc 8 114 0
	add	x2, x20, 8
.LVL380:
#APP
// 114 "/mnt/disk/jenkins/ci/workspace/chipset_pipeline_release/opensource/component_code/vendor/huawei/extra/build/build_script/kirin_kernel_release/kernel/arch/arm64/include/asm/atomic_ll_sc.h" 1
	// atomic_sub
	prfm	pstl1strm, [x2]
1:	ldxr	w0, [x2]
	sub	w0, w0, 1
	stxr	w1, w0, [x2]
	cbnz	w1, 1b
// 0 "" 2
.LVL381:
#NO_APP
	b	.L240
.LBE2014:
.LBE2013:
.LBE2015:
.LBE2041:
	.cfi_endproc
.LFE3207:
	.size	ufs_mq_req_complete, .-ufs_mq_req_complete
	.align	2
	.type	ufs_mq_req_timeout_handler, %function
ufs_mq_req_timeout_handler:
.LFB3211:
	.loc 1 1567 0
	.cfi_startproc
.LVL382:
	stp	x29, x30, [sp, -48]!
	.cfi_def_cfa_offset 48
	.cfi_offset 29, -48
	.cfi_offset 30, -40
	mov	x1, x0
.LVL383:
	add	x29, sp, 0
	.cfi_def_cfa_register 29
	stp	x19, x20, [sp,16]
	str	x21, [sp,32]
	.cfi_offset 19, -32
	.cfi_offset 20, -24
	.cfi_offset 21, -16
.LBB2042:
.LBB2043:
	.loc 7 105 0
	ldr	x0, [x0,96]
.LVL384:
.LBE2043:
.LBE2042:
	.loc 1 1569 0
	ldr	x2, [x1,64]
.LBB2045:
.LBB2044:
	.loc 7 105 0
	ubfx	x0, x0, 1, 1
.LBE2044:
.LBE2045:
	.loc 1 1569 0
	ldr	x21, [x2,280]
.LVL385:
	.loc 1 1571 0
	ldr	x20, [x2,13016]
.LVL386:
	.loc 1 1572 0
	cbz	w0, .L256
	.loc 1 1574 0
	ldr	w0, [x1,84]
	mov	x19, x1
.LVL387:
	cmp	w0, 1
	bne	.L257
.LVL388:
	ldr	x0, [x1,88]
.LBB2046:
.LBB2047:
	.loc 1 697 0
	tbz	x0, 3, .L258
.LVL389:
	.loc 1 698 0
	tbnz	x0, 11, .L278
.LBB2048:
.LBB2049:
	.loc 8 114 0
	add	x2, x20, 12
#APP
// 114 "/mnt/disk/jenkins/ci/workspace/chipset_pipeline_release/opensource/component_code/vendor/huawei/extra/build/build_script/kirin_kernel_release/kernel/arch/arm64/include/asm/atomic_ll_sc.h" 1
	// atomic_sub
	prfm	pstl1strm, [x2]
1:	ldxr	w0, [x2]
	sub	w0, w0, 1
	stxr	w1, w0, [x2]
	cbnz	w1, 1b
// 0 "" 2
.LVL390:
#NO_APP
.L260:
.LBE2049:
.LBE2048:
	.loc 1 712 0
	bl	ktime_get
.LVL391:
	str	x0, [x20,352]
.L257:
.LBE2047:
.LBE2046:
	.loc 1 1580 0
	ldr	x2, [x21,8]
	cbz	x2, .L261
	.loc 1 1581 0
	mov	x0, x19
	mov	w1, 0
	blr	x2
.LVL392:
	.loc 1 1583 0
	cmp	w0, 2
	beq	.L261
	cmp	w0, 3
	beq	.L262
	cmp	w0, 1
	beq	.L279
	.loc 1 1597 0
	mov	w0, 0
.LVL393:
.L256:
	.loc 1 1608 0
	ldp	x19, x20, [sp,16]
	.cfi_remember_state
	.cfi_restore 20
	.cfi_restore 19
.LVL394:
	ldr	x21, [sp,32]
	.cfi_restore 21
.LVL395:
	ldp	x29, x30, [sp], 48
	.cfi_restore 30
	.cfi_restore 29
	.cfi_def_cfa 31, 0
	ret
.LVL396:
.L261:
	.cfi_restore_state
.LBB2056:
.LBB2057:
	.loc 1 683 0
	ldr	w0, [x19,84]
.LVL397:
	cmp	w0, 1
	bne	.L264
	.loc 1 685 0
	ldr	x0, [x19,88]
	tbz	x0, 3, .L265
	.loc 1 686 0
	tbnz	x0, 11, .L280
.LBB2058:
.LBB2059:
	.loc 8 113 0
	add	x2, x20, 12
#APP
// 113 "/mnt/disk/jenkins/ci/workspace/chipset_pipeline_release/opensource/component_code/vendor/huawei/extra/build/build_script/kirin_kernel_release/kernel/arch/arm64/include/asm/atomic_ll_sc.h" 1
	// atomic_add
	prfm	pstl1strm, [x2]
1:	ldxr	w0, [x2]
	add	w0, w0, 1
	stxr	w1, w0, [x2]
	cbnz	w1, 1b
// 0 "" 2
.LVL398:
#NO_APP
.L264:
.LBE2059:
.LBE2058:
.LBE2057:
.LBE2056:
	.loc 1 1592 0
	mov	x0, x19
.LVL399:
	bl	blk_add_timer
.LVL400:
.LBB2065:
.LBB2066:
	.file 15 "/mnt/disk/jenkins/ci/workspace/chipset_pipeline_release/opensource/component_code/vendor/huawei/extra/build/build_script/kirin_kernel_release/kernel/block/blk.h"
	.loc 15 128 0
	add	x1, x19, 96
	mov	w0, 0
	bl	clear_bit
.LVL401:
.LBE2066:
.LBE2065:
	.loc 1 1608 0
	ldr	x21, [sp,32]
	.cfi_remember_state
	.cfi_restore 21
.LVL402:
	.loc 1 1594 0
	mov	w0, 0
	.loc 1 1608 0
	ldp	x19, x20, [sp,16]
	.cfi_restore 19
	.cfi_restore 20
.LVL403:
	ldp	x29, x30, [sp], 48
	.cfi_restore 29
	.cfi_restore 30
	.cfi_def_cfa 31, 0
	ret
.LVL404:
.L279:
	.cfi_restore_state
	.loc 1 1586 0
	mov	x0, x19
.LVL405:
	bl	blk_mq_stat_add
.LVL406:
	.loc 1 1588 0
	ldr	x1, [x19,64]
.LVL407:
	mov	x0, x19
	mov	w2, 0
	bl	ufs_mq_req_complete
.LVL408:
	.loc 1 1608 0
	ldr	x21, [sp,32]
	.cfi_remember_state
	.cfi_restore 21
.LVL409:
	ldp	x19, x20, [sp,16]
	.cfi_restore 19
	.cfi_restore 20
.LVL410:
	ldp	x29, x30, [sp], 48
	.cfi_restore 29
	.cfi_restore 30
	.cfi_def_cfa 31, 0
	ret
.LVL411:
.L258:
	.cfi_restore_state
.LBB2067:
.LBB2054:
.LBB2050:
.LBB2051:
	.loc 8 114 0
	add	x2, x20, 16
#APP
// 114 "/mnt/disk/jenkins/ci/workspace/chipset_pipeline_release/opensource/component_code/vendor/huawei/extra/build/build_script/kirin_kernel_release/kernel/arch/arm64/include/asm/atomic_ll_sc.h" 1
	// atomic_sub
	prfm	pstl1strm, [x2]
1:	ldxr	w0, [x2]
	sub	w0, w0, 1
	stxr	w1, w0, [x2]
	cbnz	w1, 1b
// 0 "" 2
.LVL412:
#NO_APP
.LBE2051:
.LBE2050:
	.loc 1 720 0
	bl	ktime_get
.LVL413:
	str	x0, [x20,360]
	b	.L257
.LVL414:
.L262:
.LBE2054:
.LBE2067:
.LBB2068:
.LBB2069:
	.loc 1 1467 0
	mov	x0, x19
.LVL415:
	bl	blk_mq_requeue_request
.LVL416:
	.loc 1 1468 0
	ldr	x0, [x19,64]
	bl	blk_mq_kick_requeue_list
.LVL417:
.LBE2069:
.LBE2068:
	.loc 1 1608 0
	ldr	x21, [sp,32]
	.cfi_remember_state
	.cfi_restore 21
.LVL418:
	.loc 1 1601 0
	mov	w0, 0
	.loc 1 1608 0
	ldp	x19, x20, [sp,16]
	.cfi_restore 19
	.cfi_restore 20
.LVL419:
	ldp	x29, x30, [sp], 48
	.cfi_restore 29
	.cfi_restore 30
	.cfi_def_cfa 31, 0
	ret
.LVL420:
.L278:
	.cfi_restore_state
.LBB2070:
.LBB2055:
.LBB2052:
.LBB2053:
	.loc 8 114 0
	add	x2, x20, 8
#APP
// 114 "/mnt/disk/jenkins/ci/workspace/chipset_pipeline_release/opensource/component_code/vendor/huawei/extra/build/build_script/kirin_kernel_release/kernel/arch/arm64/include/asm/atomic_ll_sc.h" 1
	// atomic_sub
	prfm	pstl1strm, [x2]
1:	ldxr	w0, [x2]
	sub	w0, w0, 1
	stxr	w1, w0, [x2]
	cbnz	w1, 1b
// 0 "" 2
.LVL421:
#NO_APP
	b	.L260
.LVL422:
.L265:
.LBE2053:
.LBE2052:
.LBE2055:
.LBE2070:
.LBB2071:
.LBB2064:
.LBB2060:
.LBB2061:
	.loc 8 113 0
	add	x2, x20, 16
#APP
// 113 "/mnt/disk/jenkins/ci/workspace/chipset_pipeline_release/opensource/component_code/vendor/huawei/extra/build/build_script/kirin_kernel_release/kernel/arch/arm64/include/asm/atomic_ll_sc.h" 1
	// atomic_add
	prfm	pstl1strm, [x2]
1:	ldxr	w0, [x2]
	add	w0, w0, 1
	stxr	w1, w0, [x2]
	cbnz	w1, 1b
// 0 "" 2
.LVL423:
#NO_APP
	b	.L264
.LVL424:
.L280:
.LBE2061:
.LBE2060:
.LBB2062:
.LBB2063:
	add	x2, x20, 8
#APP
// 113 "/mnt/disk/jenkins/ci/workspace/chipset_pipeline_release/opensource/component_code/vendor/huawei/extra/build/build_script/kirin_kernel_release/kernel/arch/arm64/include/asm/atomic_ll_sc.h" 1
	// atomic_add
	prfm	pstl1strm, [x2]
1:	ldxr	w0, [x2]
	add	w0, w0, 1
	stxr	w1, w0, [x2]
	cbnz	w1, 1b
// 0 "" 2
.LVL425:
#NO_APP
	b	.L264
.LBE2063:
.LBE2062:
.LBE2064:
.LBE2071:
	.cfi_endproc
.LFE3211:
	.size	ufs_mq_req_timeout_handler, .-ufs_mq_req_timeout_handler
	.align	2
	.type	ufs_mq_iosched_deinit, %function
ufs_mq_iosched_deinit:
.LFB3223:
	.loc 1 1808 0
	.cfi_startproc
.LVL426:
	stp	x29, x30, [sp, -48]!
	.cfi_def_cfa_offset 48
	.cfi_offset 29, -48
	.cfi_offset 30, -40
	add	x29, sp, 0
	.cfi_def_cfa_register 29
	stp	x19, x20, [sp,16]
	str	x21, [sp,32]
	.cfi_offset 19, -32
	.cfi_offset 20, -24
	.cfi_offset 21, -16
	.loc 1 1809 0
	ldr	x20, [x0,13016]
.LVL427:
	.loc 1 1811 0
	cbz	x20, .L283
.LBB2072:
.LBB2073:
	.loc 9 302 0
	adrp	x21, .LANCHOR2
	mov	x19, x0
	add	x21, x21, :lo12:.LANCHOR2
	mov	x0, x21
.LVL428:
	bl	_raw_spin_lock
.LVL429:
.LBE2073:
.LBE2072:
.LBB2074:
.LBB2075:
.LBB2076:
	.loc 3 119 0
	ldr	x3, [x20,432]
.LBE2076:
.LBE2075:
.LBE2074:
	.loc 1 1815 0
	add	x1, x20, 432
.LBB2091:
.LBB2084:
.LBB2082:
	.loc 3 119 0
	ldr	x2, [x20,440]
.LBE2082:
.LBE2084:
.LBE2091:
.LBB2092:
.LBB2093:
	.loc 9 347 0
	mov	x0, x21
.LBE2093:
.LBE2092:
.LBB2095:
.LBB2085:
.LBB2083:
.LBB2077:
.LBB2078:
	.loc 3 104 0
	str	x2, [x3,8]
.LBB2079:
.LBB2080:
.LBB2081:
	.loc 2 276 0
	str	x3, [x2]
.LBE2081:
.LBE2080:
.LBE2079:
.LBE2078:
.LBE2077:
.LBE2083:
.LBE2085:
.LBB2086:
.LBB2087:
.LBB2088:
.LBB2089:
.LBB2090:
	str	x1, [x20,432]
.LBE2090:
.LBE2089:
.LBE2088:
	.loc 3 28 0
	str	x1, [x1,8]
.LBE2087:
.LBE2086:
.LBE2095:
.LBB2096:
.LBB2094:
	.loc 9 347 0
	bl	_raw_spin_unlock
.LVL430:
.LBE2094:
.LBE2096:
	.loc 1 1818 0
	ldr	x0, [x19,13016]
	bl	kfree
.LVL431:
	.loc 1 1819 0
	str	xzr, [x19,13016]
	.loc 1 1821 0
	mov	w0, 0
	.loc 1 1822 0
	ldp	x19, x20, [sp,16]
	.cfi_remember_state
	.cfi_restore 20
	.cfi_restore 19
.LVL432:
	ldr	x21, [sp,32]
	.cfi_restore 21
	ldp	x29, x30, [sp], 48
	.cfi_restore 30
	.cfi_restore 29
	.cfi_def_cfa 31, 0
	ret
.LVL433:
.L283:
	.cfi_restore_state
	.loc 1 1812 0
	mov	w0, 22
.LVL434:
	.loc 1 1822 0
	ldr	x21, [sp,32]
	.cfi_restore 21
	ldp	x19, x20, [sp,16]
	.cfi_restore 19
	.cfi_restore 20
.LVL435:
	ldp	x29, x30, [sp], 48
	.cfi_restore 29
	.cfi_restore 30
	.cfi_def_cfa 31, 0
	ret
	.cfi_endproc
.LFE3223:
	.size	ufs_mq_iosched_deinit, .-ufs_mq_iosched_deinit
	.align	2
	.type	ufs_mq_sync_burst_check_timer_expire, %function
ufs_mq_sync_burst_check_timer_expire:
.LFB3158:
	.loc 1 593 0
	.cfi_startproc
.LVL436:
	stp	x29, x30, [sp, -32]!
	.cfi_def_cfa_offset 32
	.cfi_offset 29, -32
	.cfi_offset 30, -24
	add	x29, sp, 0
	.cfi_def_cfa_register 29
	str	x19, [sp,16]
	.cfi_offset 19, -16
	.loc 1 593 0
	mov	x19, x0
	.loc 1 596 0
	bl	ktime_get
.LVL437:
	.loc 1 597 0
	ldr	x19, [x19,13016]
.LVL438:
.LBB2161:
.LBB2162:
.LBB2163:
	.loc 2 247 0 discriminator 4
	ldr	w1, [x19,424]
.LBE2163:
.LBE2162:
.LBE2161:
	.loc 1 599 0 discriminator 5
	sub	w1, w1, #1
	cmp	w1, 1
	bhi	.L285
	.loc 1 602 0
	adrp	x2, .LANCHOR2+24
	ldr	x3, [x19,344]
.LVL439:
.LBB2164:
.LBB2165:
.LBB2166:
	.file 16 "/mnt/disk/jenkins/ci/workspace/chipset_pipeline_release/opensource/component_code/vendor/huawei/extra/build/build_script/kirin_kernel_release/kernel/include/linux/ktime.h"
	.loc 16 233 0
	mov	w1, 16960
	movk	w1, 0xf, lsl 16
.LBE2166:
.LBE2165:
.LBE2164:
	.loc 1 602 0
	ldr	w2, [x2,#:lo12:.LANCHOR2+24]
.LBB2172:
.LBB2168:
.LBB2167:
	.loc 16 233 0
	smaddl	x1, w2, w1, x3
.LVL440:
.LBE2167:
.LBE2168:
.LBB2169:
.LBB2170:
.LBB2171:
	.loc 16 146 0
	cmp	x0, x1
	bgt	.L287
.L285:
.LBE2171:
.LBE2170:
.LBE2169:
.LBE2172:
.LBB2173:
.LBB2174:
.LBB2175:
	.loc 16 233 0
	ldr	x1, [x19,336]
	add	x1, x1, 9998336
	add	x1, x1, 1664
.LBE2175:
.LBE2174:
.LBB2176:
.LBB2177:
.LBB2178:
	.loc 16 144 0
	cmp	x0, x1
	bge	.L306
.LBE2178:
.LBE2177:
.LBE2176:
.LBE2173:
.LBB2179:
.LBB2180:
.LBB2181:
.LBB2182:
.LBB2183:
	.loc 2 247 0 discriminator 4
	ldr	w0, [x19,424]
.LVL441:
.LBE2183:
.LBE2182:
.LBE2181:
	.loc 1 556 0 discriminator 5
	cmp	w0, 1
	beq	.L290
	cmp	w0, 3
	bne	.L291
.LBB2184:
	.loc 1 561 0 discriminator 1
	ldr	x0, [x19]
.LBB2185:
.LBB2186:
	.loc 2 247 0 discriminator 4
	ldr	w0, [x0,1168]
.LBE2186:
.LBE2185:
.LBE2184:
	.loc 1 561 0 discriminator 5
	cbnz	w0, .L291
.L304:
.LBB2187:
.LBB2188:
.LBB2189:
	.loc 2 275 0
	mov	w0, 1
	str	w0, [x19,424]
.L291:
.LBE2189:
.LBE2188:
.LBE2187:
.LBE2180:
.LBE2179:
	.loc 1 613 0
	adrp	x1, jiffies
	.loc 1 613 0 is_stmt 0 discriminator 1
	add	x0, x19, 376
	.loc 1 613 0
	ldr	x1, [x1,#:lo12:jiffies]
	.loc 1 613 0 discriminator 1
	add	x1, x1, 3
	bl	mod_timer
.LVL442:
.L284:
	.loc 1 614 0 is_stmt 1
	ldr	x19, [sp,16]
	.cfi_remember_state
	.cfi_restore 19
.LVL443:
	ldp	x29, x30, [sp], 32
	.cfi_restore 30
	.cfi_restore 29
	.cfi_def_cfa 31, 0
	ret
.LVL444:
.L306:
	.cfi_restore_state
.LBB2194:
.LBB2195:
.LBB2196:
.LBB2197:
.LBB2198:
	.loc 2 247 0 discriminator 4
	ldr	w0, [x19,424]
.LVL445:
.LBE2198:
.LBE2197:
.LBE2196:
	.loc 1 571 0 discriminator 5
	cmp	w0, 2
	beq	.L294
	cmp	w0, 3
	beq	.L295
	cmp	w0, 1
	bne	.L291
	.loc 1 573 0
	bl	ktime_get
.LVL446:
.LBB2199:
.LBB2200:
.LBB2201:
	.loc 16 233 0
	ldr	x2, [x19,352]
	mov	x1, 50048
	movk	x1, 0x1c9, lsl 16
	add	x1, x2, x1
.LBE2201:
.LBE2200:
.LBB2202:
.LBB2203:
.LBB2204:
	.loc 16 146 0
	cmp	x0, x1
	ble	.L291
.LBE2204:
.LBE2203:
.LBE2202:
.LBE2199:
.LBB2205:
.LBB2206:
.LBB2207:
	.loc 2 275 0
	str	wzr, [x19,424]
	b	.L284
.LVL447:
.L287:
.LBE2207:
.LBE2206:
.LBE2205:
.LBE2195:
.LBE2194:
.LBB2224:
.LBB2225:
.LBB2226:
	mov	w1, 3
	str	w1, [x19,424]
	b	.L285
.LVL448:
.L290:
.LBE2226:
.LBE2225:
.LBE2224:
.LBB2227:
.LBB2193:
.LBB2190:
.LBB2191:
.LBB2192:
	mov	w0, 2
	str	w0, [x19,424]
	b	.L291
.L294:
.LBE2192:
.LBE2191:
.LBE2190:
.LBE2193:
.LBE2227:
.LBB2228:
.LBB2223:
	.loc 1 579 0
	bl	ktime_get
.LVL449:
.LBB2210:
.LBB2211:
.LBB2212:
	.loc 16 233 0
	ldr	x1, [x19,336]
	add	x1, x1, 9998336
	add	x1, x1, 1664
.LBE2212:
.LBE2211:
.LBB2213:
.LBB2214:
.LBB2215:
	.loc 16 146 0
	cmp	x0, x1
	bgt	.L304
	b	.L291
.LVL450:
.L295:
.LBE2215:
.LBE2214:
.LBE2213:
.LBE2210:
	.loc 1 583 0
	bl	ktime_get
.LVL451:
.LBB2216:
.LBB2217:
.LBB2218:
	.loc 16 233 0
	ldr	x2, [x19,352]
	mov	x1, 11520
	movk	x1, 0x131, lsl 16
	add	x1, x2, x1
.LBE2218:
.LBE2217:
.LBB2219:
.LBB2220:
.LBB2221:
	.loc 16 146 0
	cmp	x0, x1
	ble	.L291
.LBE2221:
.LBE2220:
.LBE2219:
.LBE2216:
.LBB2222:
.LBB2209:
.LBB2208:
	.loc 2 275 0
	str	wzr, [x19,424]
	b	.L284
.LBE2208:
.LBE2209:
.LBE2222:
.LBE2223:
.LBE2228:
	.cfi_endproc
.LFE3158:
	.size	ufs_mq_sync_burst_check_timer_expire, .-ufs_mq_sync_burst_check_timer_expire
	.align	2
	.type	ufs_mq_iosched_init, %function
ufs_mq_iosched_init:
.LFB3222:
	.loc 1 1722 0
	.cfi_startproc
.LVL452:
	stp	x29, x30, [sp, -64]!
	.cfi_def_cfa_offset 64
	.cfi_offset 29, -64
	.cfi_offset 30, -56
.LBB2229:
.LBB2230:
	.file 17 "/mnt/disk/jenkins/ci/workspace/chipset_pipeline_release/opensource/component_code/vendor/huawei/extra/build/build_script/kirin_kernel_release/kernel/include/linux/slab.h"
	.loc 17 499 0
	mov	w1, 192
	mov	x2, 448
.LBE2230:
.LBE2229:
	.loc 1 1722 0
	add	x29, sp, 0
	.cfi_def_cfa_register 29
	stp	x21, x22, [sp,32]
	.cfi_offset 21, -32
	.cfi_offset 22, -24
	mov	x21, x0
.LBB2234:
.LBB2231:
	.loc 17 499 0
	adrp	x0, kmalloc_caches+72
.LVL453:
	movk	w1, 0x240, lsl 16
.LBE2231:
.LBE2234:
	.loc 1 1722 0
	stp	x19, x20, [sp,16]
.LBB2235:
.LBB2232:
	.loc 17 499 0
	ldr	x0, [x0,#:lo12:kmalloc_caches+72]
.LBE2232:
.LBE2235:
	.loc 1 1722 0
	stp	x23, x24, [sp,48]
	.cfi_offset 19, -48
	.cfi_offset 20, -40
	.cfi_offset 23, -16
	.cfi_offset 24, -8
.LBB2236:
.LBB2233:
	.loc 17 499 0
	bl	kmem_cache_alloc_trace
.LVL454:
	mov	x19, x0
.LBE2233:
.LBE2236:
	.loc 1 1726 0
	cbz	x0, .L317
	.loc 1 1733 0
	add	x4, x19, 32
.LBB2237:
.LBB2238:
.LBB2239:
.LBB2240:
.LBB2241:
	.loc 2 276 0
	str	x4, [x19,32]
.LBE2241:
.LBE2240:
.LBE2239:
	.loc 3 28 0
	str	x4, [x19,40]
.LBE2238:
.LBE2237:
	.loc 1 1733 0
	adrp	x4, ufs_mq_sync_io_dispatch_work_fn
	add	x4, x4, :lo12:ufs_mq_sync_io_dispatch_work_fn
	.loc 1 1733 0 is_stmt 0 discriminator 2
	add	x0, x0, 56
	mov	w1, 2097152
	mov	x2, 0
	mov	x3, 0
	.loc 1 1733 0
	mov	x23, 68719476704
	str	x4, [x19,48]
	adrp	x22, delayed_work_timer_fn
	str	x23, [x19,24]
	add	x24, x22, :lo12:delayed_work_timer_fn
	.loc 1 1731 0 is_stmt 1
	str	x21, [x19]
	.loc 1 1733 0 discriminator 2
	bl	init_timer_key
.LVL455:
	.loc 1 1735 0
	add	x4, x19, 136
	.loc 1 1733 0
	add	x5, x19, 24
	.loc 1 1735 0
	str	x23, [x19,128]
	.loc 1 1735 0 is_stmt 0 discriminator 2
	mov	x3, 0
	.loc 1 1733 0 is_stmt 1
	str	x5, [x19,88]
	.loc 1 1735 0 discriminator 2
	add	x0, x19, 160
.LBB2242:
.LBB2243:
.LBB2244:
.LBB2245:
.LBB2246:
	.loc 2 276 0
	str	x4, [x19,136]
.LBE2246:
.LBE2245:
.LBE2244:
.LBE2243:
.LBE2242:
	.loc 1 1735 0 discriminator 2
	mov	w1, 2097152
	.loc 1 1733 0
	str	x24, [x19,80]
	.loc 1 1735 0 discriminator 2
	mov	x2, 0
	.loc 1 1734 0
	str	x21, [x19,120]
.LBB2248:
	.loc 1 1741 0 discriminator 1
	adrp	x20, .LANCHOR0
.LBE2248:
.LBB2249:
.LBB2247:
	.loc 3 28 0
	str	x4, [x4,8]
.LBE2247:
.LBE2249:
	.loc 1 1735 0
	adrp	x4, ufs_mq_async_io_dispatch_work_fn
	add	x4, x4, :lo12:ufs_mq_async_io_dispatch_work_fn
	str	x4, [x19,152]
.LBB2250:
	.loc 1 1741 0 discriminator 1
	add	x23, x20, :lo12:.LANCHOR0
.LBE2250:
	.loc 1 1735 0 discriminator 2
	bl	init_timer_key
.LVL456:
	.loc 1 1735 0 is_stmt 0
	str	x24, [x19,184]
	.loc 1 1738 0 is_stmt 1
	add	x0, x19, 232
	.loc 1 1739 0
	add	x3, x19, 248
.LBB2251:
.LBB2252:
.LBB2253:
.LBB2254:
.LBB2255:
	.loc 2 276 0
	str	x0, [x19,232]
.LBE2255:
.LBE2254:
.LBE2253:
.LBE2252:
.LBE2251:
	.loc 1 1735 0
	add	x1, x19, 128
	.loc 1 1736 0
	str	x21, [x19,224]
.LBB2257:
	.loc 1 1741 0 discriminator 1
	add	x23, x23, 16
.LBE2257:
	.loc 1 1735 0
	str	x1, [x19,192]
.LBB2258:
	.loc 1 1741 0 discriminator 1
	adrp	x1, .LC9
.LBE2258:
.LBB2259:
.LBB2256:
	.loc 3 28 0
	str	x0, [x0,8]
.LBE2256:
.LBE2259:
.LBB2260:
	.loc 1 1741 0 discriminator 1
	add	x1, x1, :lo12:.LC9
.LBE2260:
.LBB2261:
.LBB2262:
.LBB2263:
.LBB2264:
.LBB2265:
	.loc 2 276 0
	str	x3, [x19,248]
.LBE2265:
.LBE2264:
.LBE2263:
.LBE2262:
.LBE2261:
.LBB2267:
	.loc 1 1741 0 discriminator 1
	add	x0, x19, 280
.LBE2267:
.LBB2268:
.LBB2266:
	.loc 3 28 0
	str	x3, [x3,8]
.LBE2266:
.LBE2268:
.LBB2269:
	.loc 1 1741 0 discriminator 1
	mov	x2, x23
	bl	__raw_spin_lock_init
.LVL457:
.LBE2269:
.LBB2270:
	.loc 1 1742 0 discriminator 1
	adrp	x1, .LC10
	mov	x2, x23
	add	x1, x1, :lo12:.LC10
	add	x0, x19, 304
	bl	__raw_spin_lock_init
.LVL458:
.LBE2270:
.LBB2271:
.LBB2272:
.LBB2273:
	.loc 2 275 0
	str	wzr, [x19,16]
.LBE2273:
.LBE2272:
.LBE2271:
	.loc 1 1748 0
	mov	w0, 28
	str	w0, [x19,328]
	.loc 1 1749 0
	mov	w0, 12
.LBB2274:
.LBB2275:
.LBB2276:
	.loc 2 275 0
	str	wzr, [x19,8]
.LBE2276:
.LBE2275:
.LBE2274:
.LBB2277:
.LBB2278:
.LBB2279:
	str	wzr, [x19,12]
.LBE2279:
.LBE2278:
.LBE2277:
	.loc 1 1749 0
	str	w0, [x19,332]
	.loc 1 1751 0
	bl	ktime_get
.LVL459:
	str	x0, [x19,336]
	.loc 1 1752 0
	bl	ktime_get
.LVL460:
	str	x0, [x19,344]
	.loc 1 1753 0
	bl	ktime_get
.LVL461:
	str	x0, [x19,352]
	.loc 1 1754 0
	bl	ktime_get
.LVL462:
	str	x0, [x19,360]
	.loc 1 1755 0
	bl	ktime_get
.LVL463:
	.loc 1 1757 0
	mov	w1, 0
	.loc 1 1755 0
	str	x0, [x19,368]
	.loc 1 1757 0
	mov	x2, 0
	add	x0, x19, 376
	mov	x3, 0
	bl	init_timer_key
.LVL464:
	.loc 1 1758 0
	str	x21, [x19,408]
	.loc 1 1759 0
	adrp	x0, ufs_mq_sync_burst_check_timer_expire
	.loc 1 1767 0
	ldr	x1, [x21,13024]
	.loc 1 1759 0
	add	x0, x0, :lo12:ufs_mq_sync_burst_check_timer_expire
.LBB2280:
.LBB2281:
.LBB2282:
	.loc 2 275 0
	str	wzr, [x19,424]
.LBE2282:
.LBE2281:
.LBE2280:
	.loc 1 1759 0
	str	x0, [x19,400]
	.loc 1 1763 0
	str	wzr, [x19,428]
	.loc 1 1765 0
	str	x19, [x21,13016]
	.loc 1 1767 0
	cbz	x1, .L309
	.loc 1 1767 0 is_stmt 0 discriminator 1
	ldr	x0, [x1,208]
	cbz	x0, .L309
.LBB2283:
	.loc 1 1769 0 is_stmt 1
	ldr	x0, [x0]
	ldr	x1, [x0,8]
	cbz	x1, .L309
	.loc 1 1770 0
	mov	x0, x21
	blr	x1
.LVL465:
.L309:
.LBE2283:
	.loc 1 1773 0
	ldr	x0, [x20,#:lo12:.LANCHOR0]
	cbz	x0, .L310
.L313:
	.loc 1 1780 0
	add	x23, x20, :lo12:.LANCHOR0
	ldr	x0, [x23,8]
	cbz	x0, .L335
.L312:
	.loc 1 1787 0
	add	x23, x20, :lo12:.LANCHOR0
	ldr	x0, [x23,16]
	cbz	x0, .L336
.L315:
.LBB2284:
.LBB2285:
	.loc 9 302 0
	adrp	x22, .LANCHOR2
.LBE2285:
.LBE2284:
	.loc 1 1799 0
	add	x20, x20, :lo12:.LANCHOR0
.LBB2287:
.LBB2286:
	.loc 9 302 0
	add	x22, x22, :lo12:.LANCHOR2
	mov	x0, x22
	bl	_raw_spin_lock
.LVL466:
.LBE2286:
.LBE2287:
.LBB2288:
.LBB2289:
	.loc 3 92 0
	ldr	x2, [x22,40]
.LBE2289:
.LBE2288:
	.loc 1 1797 0
	add	x1, x19, 432
.LBB2299:
.LBB2297:
.LBB2290:
.LBB2291:
	.loc 3 64 0
	str	x2, [x19,440]
	.loc 3 63 0
	add	x0, x22, 32
	.loc 3 62 0
	str	x1, [x22,40]
	.loc 3 63 0
	str	x0, [x19,432]
.LBE2291:
.LBE2290:
.LBE2297:
.LBE2299:
.LBB2300:
.LBB2301:
	.loc 9 347 0
	mov	x0, x22
.LBE2301:
.LBE2300:
.LBB2303:
.LBB2298:
.LBB2296:
.LBB2295:
.LBB2292:
.LBB2293:
.LBB2294:
	.loc 2 276 0
	str	x1, [x2]
.LBE2294:
.LBE2293:
.LBE2292:
.LBE2295:
.LBE2296:
.LBE2298:
.LBE2303:
.LBB2304:
.LBB2302:
	.loc 9 347 0
	bl	_raw_spin_unlock
.LVL467:
.LBE2302:
.LBE2304:
.LBB2305:
.LBB2306:
	.loc 10 492 0
	ldr	x1, [x20,16]
	add	x2, x20, 24
	mov	x3, 500
	mov	w0, 8
	bl	queue_delayed_work_on
.LVL468:
.LBE2306:
.LBE2305:
	.loc 1 1801 0
	adrp	x1, ufs_mq_make_request
	mov	x0, x21
	add	x1, x1, :lo12:ufs_mq_make_request
	bl	blk_queue_make_request
.LVL469:
	.loc 1 1723 0
	mov	w0, 0
.LVL470:
.L308:
	.loc 1 1805 0
	ldp	x19, x20, [sp,16]
	.cfi_remember_state
	.cfi_restore 20
	.cfi_restore 19
.LVL471:
	ldp	x21, x22, [sp,32]
	.cfi_restore 22
	.cfi_restore 21
.LVL472:
	ldp	x23, x24, [sp,48]
	.cfi_restore 24
	.cfi_restore 23
	ldp	x29, x30, [sp], 64
	.cfi_restore 30
	.cfi_restore 29
	.cfi_def_cfa 31, 0
	ret
.LVL473:
.L336:
	.cfi_restore_state
	.loc 1 1788 0
	adrp	x0, .LC13
	mov	w1, 6
	add	x0, x0, :lo12:.LC13
	mov	w2, 0
	mov	x3, 0
	mov	x4, 0
	bl	__alloc_workqueue_key
.LVL474:
	str	x0, [x23,16]
	.loc 1 1789 0
	cbz	x0, .L316
.LBB2307:
.LBB2308:
.LBB2309:
	.loc 3 27 0
	add	x4, x23, 32
.LBE2309:
.LBE2308:
.LBE2307:
	.loc 1 1793 0
	add	x24, x23, 24
.LBB2315:
.LBB2313:
.LBB2312:
.LBB2310:
.LBB2311:
	.loc 2 276 0
	str	x4, [x23,32]
.LBE2311:
.LBE2310:
.LBE2312:
.LBE2313:
.LBE2315:
	.loc 1 1793 0
	mov	x5, 68719476704
.LBB2316:
.LBB2314:
	.loc 3 28 0
	str	x4, [x23,40]
.LBE2314:
.LBE2316:
	.loc 1 1793 0
	adrp	x4, ufs_mq_io_guard_work_fn
	add	x4, x4, :lo12:ufs_mq_io_guard_work_fn
	.loc 1 1793 0 is_stmt 0 discriminator 2
	add	x0, x23, 56
	mov	w1, 2097152
	mov	x2, 0
	mov	x3, 0
	.loc 1 1793 0
	str	x5, [x23,24]
	str	x4, [x23,48]
	add	x22, x22, :lo12:delayed_work_timer_fn
	.loc 1 1793 0 discriminator 2
	bl	init_timer_key
.LVL475:
	.loc 1 1793 0
	str	x24, [x24,64]
	str	x22, [x24,56]
	b	.L315
.L317:
	.loc 1 1727 0 is_stmt 1
	mov	w0, -22
.LVL476:
.LVL477:
	.loc 1 1805 0
	ldp	x19, x20, [sp,16]
	.cfi_remember_state
	.cfi_restore 19
	.cfi_restore 20
	ldp	x21, x22, [sp,32]
	.cfi_restore 21
	.cfi_restore 22
.LVL478:
	ldp	x23, x24, [sp,48]
	.cfi_restore 23
	.cfi_restore 24
	ldp	x29, x30, [sp], 64
	.cfi_restore 29
	.cfi_restore 30
	.cfi_def_cfa 31, 0
	ret
.LVL479:
.L310:
	.cfi_restore_state
	.loc 1 1774 0
	adrp	x0, .LC11
	mov	w1, 16
	add	x0, x0, :lo12:.LC11
	mov	w2, 0
	mov	x3, 0
	mov	x4, 0
	bl	__alloc_workqueue_key
.LVL480:
	adrp	x1, .LANCHOR0
	str	x0, [x1,#:lo12:.LANCHOR0]
	.loc 1 1775 0
	cbnz	x0, .L313
.L316:
	.loc 1 1776 0
	mov	w0, -12
.LVL481:
	b	.L308
.LVL482:
.L335:
	.loc 1 1781 0
	adrp	x0, .LC12
	mov	w1, 2
	add	x0, x0, :lo12:.LC12
	mov	w2, 0
	mov	x3, 0
	mov	x4, 0
	bl	__alloc_workqueue_key
.LVL483:
	str	x0, [x23,8]
	.loc 1 1782 0
	cbnz	x0, .L312
	.loc 1 1776 0
	mov	w0, -12
.LVL484:
	b	.L308
	.cfi_endproc
.LFE3222:
	.size	ufs_mq_iosched_init, .-ufs_mq_iosched_init
	.align	2
	.type	ufs_tagset_free_tags, %function
ufs_tagset_free_tags:
.LFB3146:
	.loc 1 440 0
	.cfi_startproc
.LVL485:
	stp	x29, x30, [sp, -48]!
	.cfi_def_cfa_offset 48
	.cfi_offset 29, -48
	.cfi_offset 30, -40
	add	x29, sp, 0
	.cfi_def_cfa_register 29
	stp	x19, x20, [sp,16]
	stp	x21, x22, [sp,32]
	.cfi_offset 19, -32
	.cfi_offset 20, -24
	.cfi_offset 21, -16
	.cfi_offset 22, -8
	.loc 1 440 0
	mov	x19, x0
.LBB2317:
.LBB2318:
	.loc 11 283 0
	ldr	x0, [x0,96]
.LVL486:
	bl	kfree
.LVL487:
	.loc 11 284 0
	ldr	x0, [x19,80]
	bl	free_percpu
.LVL488:
.LBB2319:
.LBB2320:
	.loc 11 152 0
	ldr	x0, [x19,72]
	bl	kfree
.LVL489:
	.loc 11 153 0
	str	xzr, [x19,72]
.LBE2320:
.LBE2319:
.LBE2318:
.LBE2317:
.LBB2321:
.LBB2322:
	.loc 11 283 0
	ldr	x0, [x19,152]
	bl	kfree
.LVL490:
	.loc 11 284 0
	ldr	x0, [x19,136]
	bl	free_percpu
.LVL491:
.LBB2323:
.LBB2324:
	.loc 11 152 0
	ldr	x0, [x19,128]
	bl	kfree
.LVL492:
	.loc 11 153 0
	str	xzr, [x19,128]
.LBE2324:
.LBE2323:
.LBE2322:
.LBE2321:
.LBB2325:
.LBB2326:
	.loc 11 283 0
	ldr	x0, [x19,208]
	bl	kfree
.LVL493:
	.loc 11 284 0
	ldr	x0, [x19,192]
	bl	free_percpu
.LVL494:
.LBB2327:
.LBB2328:
	.loc 11 152 0
	ldr	x0, [x19,184]
	bl	kfree
.LVL495:
	.loc 11 153 0
	str	xzr, [x19,184]
.LBE2328:
.LBE2327:
.LBE2326:
.LBE2325:
	.loc 1 444 0
	mov	x0, x19
	bl	kfree
.LVL496:
	.loc 1 446 0
	mov	w0, 0
	ldp	x19, x20, [sp,16]
	.cfi_restore 20
	.cfi_restore 19
.LVL497:
	ldp	x21, x22, [sp,32]
	.cfi_restore 22
	.cfi_restore 21
	ldp	x29, x30, [sp], 48
	.cfi_restore 30
	.cfi_restore 29
	.cfi_def_cfa 31, 0
	ret
	.cfi_endproc
.LFE3146:
	.size	ufs_tagset_free_tags, .-ufs_tagset_free_tags
	.align	2
	.type	ufs_tagset_init_tags, %function
ufs_tagset_init_tags:
.LFB3145:
	.loc 1 423 0
	.cfi_startproc
.LVL498:
	stp	x29, x30, [sp, -96]!
	.cfi_def_cfa_offset 96
	.cfi_offset 29, -96
	.cfi_offset 30, -88
.LBB2353:
.LBB2354:
.LBB2355:
.LBB2356:
.LBB2357:
	.loc 17 390 0
	mov	w0, 32960
.LVL499:
.LBE2357:
.LBE2356:
.LBE2355:
.LBE2354:
.LBE2353:
	.loc 1 423 0
	add	x29, sp, 0
	.cfi_def_cfa_register 29
.LBB2374:
.LBB2370:
.LBB2366:
.LBB2362:
.LBB2358:
	.loc 17 390 0
	movk	w0, 0x240, lsl 16
.LBE2358:
.LBE2362:
.LBE2366:
.LBE2370:
.LBE2374:
	.loc 1 423 0
	stp	x25, x26, [sp,64]
	.cfi_offset 25, -32
	.cfi_offset 26, -24
	mov	w25, w1
.LBB2375:
.LBB2371:
.LBB2367:
.LBB2363:
.LBB2359:
	.loc 17 390 0
	mov	w1, w0
.LVL500:
	adrp	x0, kmalloc_caches+64
.LBE2359:
.LBE2363:
.LBE2367:
.LBE2371:
.LBE2375:
	.loc 1 423 0
	str	x5, [x29,88]
	stp	x21, x22, [sp,32]
	.cfi_offset 21, -64
	.cfi_offset 22, -56
	mov	w22, w2
.LBB2376:
.LBB2372:
.LBB2368:
.LBB2364:
.LBB2360:
	.loc 17 390 0
	mov	x2, 248
.LVL501:
	ldr	x0, [x0,#:lo12:kmalloc_caches+64]
.LBE2360:
.LBE2364:
.LBE2368:
.LBE2372:
.LBE2376:
	.loc 1 423 0
	mov	w21, w3
	stp	x19, x20, [sp,16]
	stp	x23, x24, [sp,48]
	.cfi_offset 19, -80
	.cfi_offset 20, -72
	.cfi_offset 23, -48
	.cfi_offset 24, -40
	.loc 1 423 0
	mov	x26, x6
	mov	w23, w4
.LBB2377:
.LBB2373:
.LBB2369:
.LBB2365:
.LBB2361:
	.loc 17 390 0
	bl	kmem_cache_alloc_trace
.LVL502:
	mov	x19, x0
.LBE2361:
.LBE2365:
.LBE2369:
.LBE2373:
.LBE2377:
	.loc 1 426 0
	ldr	x5, [x29,88]
.LVL503:
	cbz	x0, .L345
.LBB2378:
.LBB2379:
	.loc 1 390 0
	sub	w20, w25, w22
	.loc 1 393 0
	adrp	x0, .LC15
	.loc 1 390 0
	sub	w20, w20, w21
.LVL504:
	.loc 1 391 0
	cmp	w5, 1
	.loc 1 393 0
	mov	w2, w22
	mov	w1, w20
	mov	w3, w21
	add	x0, x0, :lo12:.LC15
	.loc 1 391 0
	cset	w24, eq
.LVL505:
.LBE2379:
.LBE2378:
	.loc 1 431 0
	str	w22, [x19,4]
	.loc 1 430 0
	str	w25, [x19]
.LBB2403:
.LBB2400:
	.loc 1 395 0
	add	x22, x19, 56
.LVL506:
.LBE2400:
.LBE2403:
	.loc 1 432 0
	str	w21, [x19,8]
.LBB2404:
.LBB2401:
	.loc 1 393 0
	bl	printk
.LVL507:
	.loc 1 395 0
	mov	w4, 192
	mov	x0, x22
	movk	w4, 0x240, lsl 16
	mov	w1, w20
	mov	w2, -1
	mov	w3, w24
	mov	w5, w23
	bl	sbitmap_queue_init_node
.LVL508:
	cbnz	w0, .L341
	.loc 1 398 0
	mov	w4, 192
	add	x21, x19, 112
.LVL509:
	ldr	w1, [x19,4]
	movk	w4, 0x240, lsl 16
	mov	x0, x21
	mov	w2, -1
	mov	w3, w24
	mov	w5, w23
	bl	sbitmap_queue_init_node
.LVL510:
	cbnz	w0, .L342
	.loc 1 401 0
	mov	w4, 192
	ldr	w1, [x19,8]
	movk	w4, 0x240, lsl 16
	add	x0, x19, 168
	mov	w2, -1
	mov	w3, w24
	mov	w5, w23
	bl	sbitmap_queue_init_node
.LVL511:
	cbnz	w0, .L343
.LBB2380:
.LBB2381:
.LBB2382:
	.loc 2 275 0
	str	wzr, [x19,24]
.LBE2382:
.LBE2381:
.LBE2380:
.LBB2383:
.LBB2384:
.LBB2385:
	mov	x1, x19
.LBE2385:
.LBE2384:
.LBE2383:
	.loc 1 406 0
	ldr	w0, [x19,4]
.LBB2388:
.LBB2389:
.LBB2390:
	.loc 2 275 0
	str	wzr, [x19,28]
.LBE2390:
.LBE2389:
.LBE2388:
	.loc 1 406 0
	add	w0, w20, w0
	.loc 1 404 0
	str	wzr, [x19,12]
	.loc 1 405 0
	str	w20, [x19,16]
	.loc 1 406 0
	str	w0, [x19,20]
.LBB2391:
.LBB2387:
.LBB2386:
	.loc 2 275 0
	str	wzr, [x19,32]
.LVL512:
.L344:
.LBE2386:
.LBE2387:
.LBE2391:
.LBE2401:
.LBE2404:
	.loc 1 434 0
	str	x1, [x26]
	.loc 1 436 0
	mov	w0, 0
.LVL513:
.L340:
	.loc 1 437 0
	ldp	x19, x20, [sp,16]
	.cfi_remember_state
	.cfi_restore 20
	.cfi_restore 19
.LVL514:
	ldp	x21, x22, [sp,32]
	.cfi_restore 22
	.cfi_restore 21
.LVL515:
	ldp	x23, x24, [sp,48]
	.cfi_restore 24
	.cfi_restore 23
.LVL516:
	ldp	x25, x26, [sp,64]
	.cfi_restore 26
	.cfi_restore 25
.LVL517:
	ldp	x29, x30, [sp], 96
	.cfi_restore 30
	.cfi_restore 29
	.cfi_def_cfa 31, 0
	ret
.LVL518:
.L343:
	.cfi_restore_state
.LBB2405:
.LBB2402:
.LBB2392:
.LBB2393:
	.loc 11 283 0
	ldr	x0, [x21,40]
	bl	kfree
.LVL519:
	.loc 11 284 0
	ldr	x0, [x21,24]
	bl	free_percpu
.LVL520:
.LBB2394:
.LBB2395:
	.loc 11 152 0
	ldr	x0, [x19,128]
	bl	kfree
.LVL521:
	.loc 11 153 0
	str	xzr, [x19,128]
.L342:
.LBE2395:
.LBE2394:
.LBE2393:
.LBE2392:
.LBB2396:
.LBB2397:
	.loc 11 283 0
	ldr	x0, [x22,40]
	bl	kfree
.LVL522:
	.loc 11 284 0
	ldr	x0, [x22,24]
	bl	free_percpu
.LVL523:
.LBB2398:
.LBB2399:
	.loc 11 152 0
	ldr	x0, [x19,72]
	bl	kfree
.LVL524:
	.loc 11 153 0
	str	xzr, [x19,72]
.LVL525:
.L341:
.LBE2399:
.LBE2398:
.LBE2397:
.LBE2396:
	.loc 1 416 0
	adrp	x1, .LANCHOR1
	adrp	x0, .LC16
	add	x1, x1, :lo12:.LANCHOR1
	add	x0, x0, :lo12:.LC16
	add	x1, x1, 16
	bl	printk
.LVL526:
	.loc 1 417 0
	mov	x0, x19
	bl	kfree
.LVL527:
	.loc 1 418 0
	mov	x1, 0
	b	.L344
.LVL528:
.L345:
.LBE2402:
.LBE2405:
	.loc 1 427 0
	adrp	x0, .LC14
	add	x0, x0, :lo12:.LC14
	bl	printk
.LVL529:
	.loc 1 428 0
	mov	w0, -12
	b	.L340
	.cfi_endproc
.LFE3145:
	.size	ufs_tagset_init_tags, .-ufs_tagset_init_tags
	.align	2
	.type	ufs_mq_async_fwb_mode_inflight_limit_calc.isra.23, %function
ufs_mq_async_fwb_mode_inflight_limit_calc.isra.23:
.LFB3248:
	.loc 1 1307 0
	.cfi_startproc
	stp	x29, x30, [sp, -32]!
	.cfi_def_cfa_offset 32
	.cfi_offset 29, -32
	.cfi_offset 30, -24
	add	x29, sp, 0
	.cfi_def_cfa_register 29
	str	x19, [sp,16]
	.cfi_offset 19, -16
	.loc 1 1307 0
	mov	x19, x0
.LBB2406:
.LBB2407:
.LBB2408:
	.loc 2 247 0 discriminator 4
	ldr	w0, [x0,424]
.LBE2408:
.LBE2407:
.LBE2406:
	.loc 1 1310 0 discriminator 5
	cmp	w0, 3
	bls	.L367
.L348:
.LBB2409:
.LBB2410:
	.loc 1 1272 0
	ldr	w0, [x19,332]
	cmp	w0, 16
	beq	.L346
	.loc 1 1274 0
	mov	w0, 16
	str	w0, [x19,332]
	.loc 1 1275 0
	bl	ktime_get
.LVL530:
	str	x0, [x19,368]
.L346:
.LBE2410:
.LBE2409:
	.loc 1 1331 0
	ldr	x19, [sp,16]
	.cfi_remember_state
	.cfi_restore 19
	ldp	x29, x30, [sp], 32
	.cfi_restore 30
	.cfi_restore 29
	.cfi_def_cfa 31, 0
	ret
.L367:
	.cfi_restore_state
	.loc 1 1310 0 discriminator 5
	adrp	x1, .L349
	add	x1, x1, :lo12:.L349
	ldrb	w0, [x1,w0,uxtw]
	adr	x1, .Lrtx349
	add	x0, x1, w0, sxtb #2
	br	x0
.Lrtx349:
	.section	.rodata
	.align	0
	.align	2
.L349:
	.byte	(.L348 - .Lrtx349) / 4
	.byte	(.L350 - .Lrtx349) / 4
	.byte	(.L351 - .Lrtx349) / 4
	.byte	(.L352 - .Lrtx349) / 4
	.text
.L351:
.LBB2411:
.LBB2412:
	.loc 1 1272 0
	ldr	w0, [x19,332]
	cmp	w0, 1
	beq	.L346
	.loc 1 1274 0
	mov	w0, 1
	str	w0, [x19,332]
	.loc 1 1275 0
	bl	ktime_get
.LVL531:
	str	x0, [x19,368]
.LBE2412:
.LBE2411:
	.loc 1 1331 0
	ldr	x19, [sp,16]
	.cfi_remember_state
	.cfi_restore 19
	ldp	x29, x30, [sp], 32
	.cfi_restore 29
	.cfi_restore 30
	.cfi_def_cfa 31, 0
	ret
.L350:
	.cfi_restore_state
.LBB2413:
.LBB2414:
	.loc 1 1272 0
	ldr	w0, [x19,332]
	cmp	w0, 3
	beq	.L346
	.loc 1 1274 0
	mov	w0, 3
	str	w0, [x19,332]
	.loc 1 1275 0
	bl	ktime_get
.LVL532:
	str	x0, [x19,368]
.LBE2414:
.LBE2413:
	.loc 1 1331 0
	ldr	x19, [sp,16]
	.cfi_remember_state
	.cfi_restore 19
	ldp	x29, x30, [sp], 32
	.cfi_restore 29
	.cfi_restore 30
	.cfi_def_cfa 31, 0
	ret
.L352:
	.cfi_restore_state
.LBB2415:
.LBB2416:
	.loc 1 1272 0
	ldr	w0, [x19,332]
	cmp	w0, 12
	beq	.L346
	.loc 1 1274 0
	mov	w0, 12
	str	w0, [x19,332]
	.loc 1 1275 0
	bl	ktime_get
.LVL533:
	str	x0, [x19,368]
.LBE2416:
.LBE2415:
	.loc 1 1331 0
	ldr	x19, [sp,16]
	.cfi_restore 19
	ldp	x29, x30, [sp], 32
	.cfi_restore 29
	.cfi_restore 30
	.cfi_def_cfa 31, 0
	ret
	.cfi_endproc
.LFE3248:
	.size	ufs_mq_async_fwb_mode_inflight_limit_calc.isra.23, .-ufs_mq_async_fwb_mode_inflight_limit_calc.isra.23
	.align	2
	.type	__ufs_mq_complete_request_remote, %function
__ufs_mq_complete_request_remote:
.LFB3201:
	.loc 1 1456 0
	.cfi_startproc
.LVL534:
	stp	x29, x30, [sp, -32]!
	.cfi_def_cfa_offset 32
	.cfi_offset 29, -32
	.cfi_offset 30, -24
	.loc 1 1458 0
	mov	x1, 2056
	.loc 1 1456 0
	add	x29, sp, 0
	.cfi_def_cfa_register 29
	stp	x19, x20, [sp,16]
	.cfi_offset 19, -16
	.cfi_offset 20, -8
	.loc 1 1456 0
	mov	x19, x0
	.loc 1 1458 0
	ldr	x2, [x0,88]
	tst	x2, x1
	beq	.L369
	.loc 1 1459 0
	mov	w1, 8
	bl	hisi_blk_latency_req_check
.LVL535:
	.loc 1 1460 0
	ldr	x1, [x19,64]
	mov	x0, x19
	ldr	x1, [x1,248]
	blr	x1
.LVL536:
	.loc 1 1463 0
	ldp	x19, x20, [sp,16]
	.cfi_remember_state
	.cfi_restore 20
	.cfi_restore 19
.LVL537:
	ldp	x29, x30, [sp], 32
	.cfi_restore 30
	.cfi_restore 29
	.cfi_def_cfa 31, 0
	ret
.LVL538:
.L369:
	.cfi_restore_state
.LBB2440:
.LBB2441:
.LBB2442:
.LBB2443:
.LBB2444:
.LBB2445:
	.loc 14 29 0
#APP
// 29 "/mnt/disk/jenkins/ci/workspace/chipset_pipeline_release/opensource/component_code/vendor/huawei/extra/build/build_script/kirin_kernel_release/kernel/arch/arm64/include/asm/irqflags.h" 1
	mrs	x20, daif		// arch_local_irq_save
msr	daifset, #2
// 0 "" 2
.LVL539:
#NO_APP
.LBE2445:
.LBE2444:
	.loc 1 1449 0
	add	x1, x0, 136
.LBB2446:
	.loc 1 1448 0
	adrp	x0, blk_cpu_done
.LVL540:
.LBB2447:
.LBB2448:
	.loc 13 34 0
#APP
// 34 "/mnt/disk/jenkins/ci/workspace/chipset_pipeline_release/opensource/component_code/vendor/huawei/extra/build/build_script/kirin_kernel_release/kernel/arch/arm64/include/asm/percpu.h" 1
	mrs x3, tpidr_el1
// 0 "" 2
.LVL541:
#NO_APP
.LBE2448:
.LBE2447:
	.loc 1 1448 0
	add	x0, x0, :lo12:blk_cpu_done
.LVL542:
	add	x2, x3, x0
.LBE2446:
.LBB2449:
.LBB2450:
	.loc 3 92 0
	ldr	x4, [x2,8]
.LBB2451:
.LBB2452:
	.loc 3 62 0
	str	x1, [x2,8]
	.loc 3 63 0
	str	x2, [x19,136]
	.loc 3 64 0
	str	x4, [x19,144]
.LBB2453:
.LBB2454:
.LBB2455:
	.loc 2 276 0
	str	x1, [x4]
.LBE2455:
.LBE2454:
.LBE2453:
.LBE2452:
.LBE2451:
.LBE2450:
.LBE2449:
	.loc 1 1450 0
	ldr	x0, [x3,x0]
.LVL543:
	cmp	x1, x0
	bne	.L371
	.loc 1 1451 0
	mov	w0, 4
	bl	raise_softirq_irqoff
.LVL544:
.L371:
.LBB2456:
.LBB2457:
	.loc 14 81 0
#APP
// 81 "/mnt/disk/jenkins/ci/workspace/chipset_pipeline_release/opensource/component_code/vendor/huawei/extra/build/build_script/kirin_kernel_release/kernel/arch/arm64/include/asm/irqflags.h" 1
	msr	daif, x20		// arch_local_irq_restore
// 0 "" 2
#NO_APP
.LBE2457:
.LBE2456:
.LBE2443:
.LBE2442:
.LBE2441:
.LBE2440:
	.loc 1 1463 0
	ldp	x19, x20, [sp,16]
	.cfi_restore 19
	.cfi_restore 20
.LVL545:
	ldp	x29, x30, [sp], 32
	.cfi_restore 29
	.cfi_restore 30
	.cfi_def_cfa 31, 0
	ret
	.cfi_endproc
.LFE3201:
	.size	__ufs_mq_complete_request_remote, .-__ufs_mq_complete_request_remote
	.align	2
	.type	ufs_mq_insert_sync_list.isra.25, %function
ufs_mq_insert_sync_list.isra.25:
.LFB3250:
	.loc 1 772 0
	.cfi_startproc
.LVL546:
	stp	x29, x30, [sp, -48]!
	.cfi_def_cfa_offset 48
	.cfi_offset 29, -48
	.cfi_offset 30, -40
	add	x29, sp, 0
	.cfi_def_cfa_register 29
	stp	x19, x20, [sp,16]
	.cfi_offset 19, -32
	.cfi_offset 20, -24
	mov	x19, x1
	.loc 1 776 0
	mov	w1, 4
	.loc 1 772 0
	mov	x20, x0
	str	x21, [sp,32]
	.cfi_offset 21, -16
	.loc 1 776 0
	bl	hisi_blk_latency_req_check
.LVL547:
.LBB2469:
.LBB2470:
	.loc 9 291 0
	add	x21, x19, 280
.LBE2470:
.LBE2469:
	.loc 1 777 0 discriminator 1
	mov	x0, x21
	bl	_raw_spin_lock_irqsave
.LVL548:
	mov	x1, x0
.LVL549:
	.loc 1 778 0
	ldr	x2, [x20,88]
	.loc 1 778 0 is_stmt 0 discriminator 1
	add	x3, x19, 232
	add	x19, x19, 248
.LBB2471:
.LBB2472:
	.loc 9 362 0 is_stmt 1
	mov	x0, x21
.LBE2472:
.LBE2471:
	.loc 1 778 0
	and	x2, x2, 2048
	.loc 1 778 0 is_stmt 0 discriminator 1
	cmp	x2, xzr
	csel	x19, x19, x3, eq
.LBB2474:
.LBB2475:
	.loc 3 92 0 is_stmt 1
	ldr	x2, [x19,8]
.LBB2476:
.LBB2477:
	.loc 3 62 0
	str	x20, [x19,8]
	.loc 3 64 0
	str	x2, [x20,8]
	.loc 3 63 0
	str	x19, [x20]
.LBB2478:
.LBB2479:
.LBB2480:
	.loc 2 276 0
	str	x20, [x2]
.LBE2480:
.LBE2479:
.LBE2478:
.LBE2477:
.LBE2476:
.LBE2475:
.LBE2474:
.LBB2481:
.LBB2473:
	.loc 9 362 0
	bl	_raw_spin_unlock_irqrestore
.LVL550:
.LBE2473:
.LBE2481:
	.loc 1 780 0
	ldr	x21, [sp,32]
	.cfi_restore 21
	ldp	x19, x20, [sp,16]
	.cfi_restore 20
	.cfi_restore 19
.LVL551:
	ldp	x29, x30, [sp], 48
	.cfi_restore 30
	.cfi_restore 29
	.cfi_def_cfa 31, 0
	ret
	.cfi_endproc
.LFE3250:
	.size	ufs_mq_insert_sync_list.isra.25, .-ufs_mq_insert_sync_list.isra.25
	.align	2
	.type	ufs_mq_sync_dispatch, %function
ufs_mq_sync_dispatch:
.LFB3178:
	.loc 1 1056 0
	.cfi_startproc
.LVL552:
	stp	x29, x30, [sp, -112]!
	.cfi_def_cfa_offset 112
	.cfi_offset 29, -112
	.cfi_offset 30, -104
	add	x29, sp, 0
	.cfi_def_cfa_register 29
	stp	x21, x22, [sp,32]
	stp	x25, x26, [sp,64]
	stp	x19, x20, [sp,16]
	stp	x23, x24, [sp,48]
	.cfi_offset 21, -80
	.cfi_offset 22, -72
	.cfi_offset 25, -48
	.cfi_offset 26, -40
	.cfi_offset 19, -96
	.cfi_offset 20, -88
	.cfi_offset 23, -64
	.cfi_offset 24, -56
	.loc 1 1056 0
	adrp	x25, __stack_chk_guard
	mov	x20, x0
	.loc 1 1062 0
	ldr	x24, [x0,13016]
.LVL553:
	.loc 1 1094 0
	mov	w26, -5
	.loc 1 1064 0
	str	xzr, [x29,88]
	.loc 1 1056 0
	ldr	x0, [x25,#:lo12:__stack_chk_guard]
.LVL554:
	add	x23, x24, 280
	str	x0, [x29,104]
	add	x21, x24, 232
	.loc 1 1072 0
	add	x22, x24, 248
.LVL555:
.L381:
	.loc 1 1069 0 discriminator 1
	mov	x0, x23
.LVL556:
	bl	_raw_spin_lock_irqsave
.LVL557:
.LBB2482:
.LBB2483:
	.loc 3 220 0
	ldr	x19, [x21]
.LBE2483:
.LBE2482:
	.loc 1 1069 0 discriminator 1
	mov	x1, x0
.LVL558:
.LBB2486:
.LBB2484:
	.loc 3 221 0
	cmp	x19, x21
	beq	.L391
.L376:
.LBE2484:
.LBE2486:
	.loc 1 1078 0
	cbz	x19, .L378
.L393:
.LBB2487:
.LBB2488:
.LBB2489:
	.loc 3 119 0
	ldr	x3, [x19]
.LBE2489:
.LBE2488:
.LBE2487:
.LBB2502:
.LBB2503:
	.loc 9 362 0
	mov	x0, x23
.LBE2503:
.LBE2502:
.LBB2505:
.LBB2496:
.LBB2495:
	.loc 3 119 0
	ldr	x2, [x19,8]
.LBB2490:
.LBB2491:
	.loc 3 104 0
	str	x2, [x3,8]
.LBB2492:
.LBB2493:
.LBB2494:
	.loc 2 276 0
	str	x3, [x2]
.LBE2494:
.LBE2493:
.LBE2492:
.LBE2491:
.LBE2490:
.LBE2495:
.LBE2496:
.LBB2497:
.LBB2498:
.LBB2499:
.LBB2500:
.LBB2501:
	str	x19, [x19]
.LBE2501:
.LBE2500:
.LBE2499:
	.loc 3 28 0
	str	x19, [x19,8]
.LBE2498:
.LBE2497:
.LBE2505:
.LBB2506:
.LBB2504:
	.loc 9 362 0
	bl	_raw_spin_unlock_irqrestore
.LVL559:
.LBE2504:
.LBE2506:
	.loc 1 1088 0
	ldr	x3, [x19,72]
	.loc 1 1090 0
	mov	x0, x19
.LBB2507:
.LBB2508:
	.loc 6 53 0
	ldr	x5, [x20,288]
.LBE2508:
.LBE2507:
	.loc 1 1090 0
	mov	x2, x24
.LBB2511:
.LBB2509:
	.loc 6 53 0
	ldr	x1, [x20,312]
.LBE2509:
.LBE2511:
	.loc 1 1090 0
	mov	x4, x20
	.loc 1 1088 0
	ldr	w6, [x3,64]
	.loc 1 1090 0
	add	x3, x29, 80
.LBB2512:
.LBB2510:
	.loc 6 53 0
	ldr	w5, [x5,w6,sxtw 2]
	ldr	x1, [x1,w5,uxtw 3]
.LBE2510:
.LBE2512:
	.loc 1 1089 0
	str	x19, [x29,80]
	.loc 1 1090 0
	bl	ufs_mq_queue_rq
.LVL560:
	.loc 1 1091 0
	cbz	w0, .L381
	.loc 1 1093 0
	cmp	w0, 2
	beq	.L392
	.loc 1 1098 0
	mov	x0, x19
.LVL561:
	bl	__blk_mq_requeue_request
.LVL562:
	.loc 1 1099 0
	ldr	x1, [x20,13016]
	mov	x0, x19
	bl	ufs_mq_insert_sync_list.isra.25
.LVL563:
	.loc 1 1100 0
	bl	ktime_get
.LVL564:
.LBB2513:
.LBB2514:
.LBB2515:
	.loc 16 233 0
	ldr	x2, [x24,352]
	mov	x1, 37888
	movk	x1, 0x7735, lsl 16
	add	x1, x2, x1
.LBE2515:
.LBE2514:
.LBB2516:
.LBB2517:
.LBB2518:
	.loc 16 146 0
	cmp	x1, x0
	bge	.L386
.LBE2518:
.LBE2517:
.LBE2516:
.LBE2513:
	.loc 1 1100 0 discriminator 4
	bl	ktime_get
.LVL565:
.LBB2519:
.LBB2520:
.LBB2521:
	.loc 16 233 0
	ldr	x2, [x24,360]
	mov	x1, 37888
	movk	x1, 0x7735, lsl 16
	add	x1, x2, x1
.LBE2521:
.LBE2520:
.LBB2522:
.LBB2523:
.LBB2524:
	.loc 16 146 0
	cmp	x1, x0
	bge	.L386
.LBE2524:
.LBE2523:
.LBE2522:
.LBE2519:
.LBB2525:
.LBB2526:
.LBB2527:
.LBB2528:
	.loc 10 492 0
	adrp	x1, .LANCHOR0
.LBE2528:
.LBE2527:
	.loc 1 764 0
	ldr	x2, [x20,13016]
.LBB2530:
.LBB2529:
	.loc 10 492 0
	mov	x3, 1
	mov	w0, 8
	add	x2, x2, 24
	ldr	x1, [x1,#:lo12:.LANCHOR0]
	bl	queue_delayed_work_on
.LVL566:
	b	.L375
.LVL567:
.L391:
.LBE2529:
.LBE2530:
.LBE2526:
.LBE2525:
.LBB2531:
.LBB2485:
	.loc 3 221 0 discriminator 1
	ldr	x0, [x21,8]
	cmp	x0, x21
	beq	.L377
	mov	x19, x21
.LBE2485:
.LBE2531:
	.loc 1 1078 0
	cbnz	x19, .L393
.L378:
.LBB2532:
.LBB2533:
	.loc 9 362 0
	mov	x0, x23
	bl	_raw_spin_unlock_irqrestore
.LVL568:
.L375:
.LBE2533:
.LBE2532:
	.loc 1 1108 0
	ldr	x1, [x29,104]
	ldr	x0, [x25,#:lo12:__stack_chk_guard]
	cmp	x1, x0
	bne	.L394
	ldp	x19, x20, [sp,16]
	.cfi_remember_state
	.cfi_restore 20
	.cfi_restore 19
.LVL569:
	ldp	x21, x22, [sp,32]
	.cfi_restore 22
	.cfi_restore 21
	ldp	x23, x24, [sp,48]
	.cfi_restore 24
	.cfi_restore 23
.LVL570:
	ldp	x25, x26, [sp,64]
	.cfi_restore 26
	.cfi_restore 25
	ldp	x29, x30, [sp], 112
	.cfi_restore 30
	.cfi_restore 29
	.cfi_def_cfa 31, 0
	ret
.LVL571:
.L377:
	.cfi_restore_state
.LBB2534:
.LBB2535:
	.loc 3 220 0
	ldr	x19, [x22]
	.loc 3 221 0
	cmp	x22, x19
	bne	.L376
	.loc 3 221 0 is_stmt 0 discriminator 1
	ldr	x0, [x22,8]
	cmp	x22, x0
	bne	.L376
	b	.L378
.LVL572:
.L386:
.LBE2535:
.LBE2534:
.LBB2536:
.LBB2537:
.LBB2538:
.LBB2539:
	.loc 10 492 0 is_stmt 1
	adrp	x1, .LANCHOR0
.LBE2539:
.LBE2538:
	.loc 1 764 0
	ldr	x2, [x20,13016]
.LBB2541:
.LBB2540:
	.loc 10 492 0
	mov	x3, 0
	mov	w0, 8
	add	x2, x2, 24
	ldr	x1, [x1,#:lo12:.LANCHOR0]
	bl	queue_delayed_work_on
.LVL573:
	b	.L375
.LVL574:
.L392:
.LBE2540:
.LBE2541:
.LBE2537:
.LBE2536:
	.loc 1 1094 0
	str	w26, [x19,564]
	.loc 1 1095 0
	mov	x0, x19
.LVL575:
	mov	w1, -5
	bl	blk_mq_end_request
.LVL576:
	.loc 1 1096 0
	b	.L381
.L394:
	.loc 1 1108 0
	bl	__stack_chk_fail
.LVL577:
	.cfi_endproc
.LFE3178:
	.size	ufs_mq_sync_dispatch, .-ufs_mq_sync_dispatch
	.align	2
	.type	ufs_mq_sync_io_dispatch_work_fn, %function
ufs_mq_sync_io_dispatch_work_fn:
.LFB3179:
	.loc 1 1111 0
	.cfi_startproc
.LVL578:
	stp	x29, x30, [sp, -16]!
	.cfi_def_cfa_offset 16
	.cfi_offset 29, -16
	.cfi_offset 30, -8
	add	x29, sp, 0
	.cfi_def_cfa_register 29
	.loc 1 1113 0
	ldr	x0, [x0,96]
.LVL579:
	bl	ufs_mq_sync_dispatch
.LVL580:
	.loc 1 1114 0
	ldp	x29, x30, [sp], 16
	.cfi_restore 30
	.cfi_restore 29
	.cfi_def_cfa 31, 0
	ret
	.cfi_endproc
.LFE3179:
	.size	ufs_mq_sync_io_dispatch_work_fn, .-ufs_mq_sync_io_dispatch_work_fn
	.align	2
	.type	ufs_mq_async_io_dispatch_work_fn, %function
ufs_mq_async_io_dispatch_work_fn:
.LFB3199:
	.loc 1 1437 0
	.cfi_startproc
.LVL581:
	stp	x29, x30, [sp, -144]!
	.cfi_def_cfa_offset 144
	.cfi_offset 29, -144
	.cfi_offset 30, -136
	add	x29, sp, 0
	.cfi_def_cfa_register 29
	stp	x19, x20, [sp,16]
	stp	x23, x24, [sp,48]
	stp	x25, x26, [sp,64]
	stp	x27, x28, [sp,80]
	stp	x21, x22, [sp,32]
	.cfi_offset 19, -128
	.cfi_offset 20, -120
	.cfi_offset 23, -96
	.cfi_offset 24, -88
	.cfi_offset 25, -80
	.cfi_offset 26, -72
	.cfi_offset 27, -64
	.cfi_offset 28, -56
	.cfi_offset 21, -112
	.cfi_offset 22, -104
.LBB2619:
.LBB2620:
.LBB2621:
.LBB2622:
.LBB2623:
.LBB2624:
.LBB2625:
	.loc 1 1343 0
	adrp	x24, vm_dirty_ratio
	adrp	x26, vm_zone_stat
.LBE2625:
.LBE2624:
.LBE2623:
.LBE2622:
.LBE2621:
.LBE2620:
.LBE2619:
	.loc 1 1439 0
	ldr	x28, [x0,96]
	.loc 1 1437 0
	adrp	x0, __stack_chk_guard
.LVL582:
.LBB2785:
.LBB2782:
.LBB2776:
.LBB2738:
.LBB2730:
.LBB2687:
.LBB2682:
	.loc 1 1343 0
	add	x24, x24, :lo12:vm_dirty_ratio
.LBE2682:
.LBE2687:
.LBE2730:
.LBE2738:
.LBE2776:
	.loc 1 1404 0
	str	xzr, [x29,120]
.LBB2777:
.LBB2739:
.LBB2731:
	.loc 1 1368 0
	mov	w27, 2
.LBE2731:
.LBE2739:
.LBE2777:
.LBE2782:
.LBE2785:
	.loc 1 1437 0
	ldr	x0, [x0,#:lo12:__stack_chk_guard]
	str	x0, [x29,136]
.LBB2786:
.LBB2783:
.LBB2778:
.LBB2740:
.LBB2732:
.LBB2688:
.LBB2689:
	.loc 1 1281 0 discriminator 5
	adrp	x0, .L405
	add	x0, x0, :lo12:.L405
	str	x0, [x29,96]
.LBE2689:
.LBE2688:
.LBB2720:
.LBB2683:
.LBB2626:
.LBB2627:
.LBB2628:
.LBB2629:
.LBB2630:
.LBB2631:
.LBB2632:
	.loc 2 247 0 discriminator 5
	add	x0, x26, :lo12:vm_zone_stat
.LBE2632:
.LBE2631:
.LBE2630:
.LBE2629:
.LBE2628:
.LBE2627:
.LBE2626:
	.loc 1 1343 0
	ldr	w19, [x24]
.LBE2683:
.LBE2720:
.LBE2732:
.LBE2740:
.LBE2778:
	.loc 1 1403 0
	ldr	x25, [x28,13016]
.LVL583:
.LBB2779:
.LBB2741:
.LBB2733:
.LBB2721:
.LBB2684:
	.loc 1 1343 0
	cmp	w19, 50
.LBB2651:
.LBB2648:
.LBB2645:
.LBB2642:
.LBB2639:
.LBB2636:
.LBB2633:
	.loc 2 247 0 discriminator 5
	ldr	x21, [x0,112]
.LBE2633:
.LBE2636:
.LBE2639:
.LBE2642:
.LBE2645:
.LBE2648:
.LBE2651:
.LBE2684:
.LBE2721:
.LBE2733:
.LBE2741:
.LBE2779:
	.loc 1 1404 0
	mov	x20, x25
.LBB2780:
.LBB2742:
.LBB2734:
.LBB2722:
.LBB2685:
.LBB2652:
.LBB2653:
.LBB2654:
.LBB2655:
.LBB2656:
.LBB2657:
.LBB2658:
	.loc 2 247 0 discriminator 5
	ldr	x23, [x0,168]
.LBE2658:
.LBE2657:
.LBE2656:
.LBE2655:
.LBE2654:
.LBE2653:
.LBE2652:
.LBB2665:
.LBB2666:
.LBB2667:
.LBB2668:
.LBB2669:
.LBB2670:
.LBB2671:
	ldr	x22, [x0,120]
.LBE2671:
.LBE2670:
.LBE2669:
.LBE2668:
.LBE2667:
.LBE2666:
.LBE2665:
	.loc 1 1343 0
	bgt	.L398
.L456:
	.loc 1 1344 0
	add	w19, w19, 10
	bl	global_dirtyable_memory
.LVL584:
	mov	x1, 62915
	sxtw	x19, w19
	movk	x1, 0x5c28, lsl 16
	movk	x1, 0xc28f, lsl 32
	mul	x0, x0, x19
	movk	x1, 0x28f5, lsl 48
	lsr	x19, x0, 2
	umulh	x19, x19, x1
	.loc 1 1348 0
	bl	pch_lowmem_check2
.LVL585:
	cmp	w0, wzr
	.loc 1 1344 0
	lsr	x19, x19, 2
.LVL586:
	.loc 1 1348 0
	ble	.L455
.L400:
.LBE2685:
.LBE2722:
	.loc 1 1368 0
	str	w27, [x20,428]
	ldr	x19, [x28,13016]
.LVL587:
.LBB2723:
.LBB2724:
.LBB2725:
	.loc 1 1272 0
	mov	x0, x19
	ldr	w1, [x19,332]
	cmp	w1, 16
	beq	.L410
	.loc 1 1274 0
	mov	w0, 16
	str	w0, [x19,332]
	.loc 1 1275 0
	bl	ktime_get
.LVL588:
	str	x0, [x19,368]
	ldr	x0, [x28,13016]
.LVL589:
.L410:
.LBE2725:
.LBE2724:
.LBE2723:
.LBE2734:
.LBE2742:
.LBB2743:
.LBB2744:
	.loc 1 1251 0
	ldr	x1, [x28,13024]
	cbz	x1, .L396
.L458:
	.loc 1 1251 0 is_stmt 0 discriminator 1
	ldr	x19, [x1,208]
.LVL590:
	cbz	x19, .L396
.LBB2745:
	.loc 1 1253 0 is_stmt 1
	ldr	x1, [x19]
	ldr	x1, [x1,24]
	cbz	x1, .L396
.LBB2746:
.LBB2747:
	.loc 9 291 0
	add	x20, x0, 304
.LBE2747:
.LBE2746:
	.loc 1 1254 0 discriminator 1
	mov	x0, x20
	bl	_raw_spin_lock_irqsave
.LVL591:
	str	x0, [x29,104]
	.loc 1 1255 0
	ldr	x2, [x19]
	mov	x0, x28
.LVL592:
	ldr	x2, [x2,24]
	blr	x2
.LVL593:
	mov	x19, x0
.LVL594:
.LBB2748:
.LBB2749:
	.loc 9 362 0
	ldr	x1, [x29,104]
.LVL595:
	mov	x0, x20
	bl	_raw_spin_unlock_irqrestore
.LVL596:
.LBE2749:
.LBE2748:
.LBE2745:
.LBE2744:
.LBE2743:
	.loc 1 1412 0
	cbz	x19, .L396
	.loc 1 1415 0
	ldr	x4, [x19,72]
	.loc 1 1418 0
	mov	x0, x19
.LBB2751:
.LBB2752:
	.loc 6 53 0
	ldr	x6, [x28,288]
.LBE2752:
.LBE2751:
	.loc 1 1418 0
	mov	x2, x25
.LBB2755:
.LBB2753:
	.loc 6 53 0
	ldr	x1, [x28,312]
.LBE2753:
.LBE2755:
	.loc 1 1418 0
	add	x3, x29, 112
	.loc 1 1415 0
	ldr	w7, [x4,64]
	.loc 1 1418 0
	mov	x4, x28
.LBB2756:
.LBB2754:
	.loc 6 53 0
	ldr	w6, [x6,w7,sxtw 2]
	ldr	x1, [x1,w6,uxtw 3]
.LBE2754:
.LBE2756:
	.loc 1 1416 0
	str	x19, [x29,112]
	.loc 1 1418 0
	bl	ufs_mq_queue_rq
.LVL597:
	.loc 1 1420 0
	cbnz	w0, .L416
.LBB2757:
.LBB2758:
	.file 18 "/mnt/disk/jenkins/ci/workspace/chipset_pipeline_release/opensource/component_code/vendor/huawei/extra/build/build_script/kirin_kernel_release/kernel/include/linux/blkdev.h"
	.loc 18 1294 0
	ldr	w0, [x19,104]
.LVL598:
.LBE2758:
.LBE2757:
	.loc 1 1421 0
	ldr	x19, [x19,112]
.LVL599:
	ubfx	x0, x0, 9, 23
	ldr	x20, [x28,13016]
	add	x0, x0, x19
	str	x0, [x28,328]
.LVL600:
.L462:
.LBB2759:
.LBB2735:
.LBB2726:
.LBB2686:
.LBB2678:
.LBB2649:
.LBB2646:
.LBB2643:
.LBB2640:
.LBB2637:
.LBB2634:
	.loc 2 247 0 discriminator 5
	add	x0, x26, :lo12:vm_zone_stat
.LBE2634:
.LBE2637:
.LBE2640:
.LBE2643:
.LBE2646:
.LBE2649:
.LBE2678:
	.loc 1 1343 0
	ldr	w19, [x24]
.LVL601:
	cmp	w19, 50
.LBB2679:
.LBB2650:
.LBB2647:
.LBB2644:
.LBB2641:
.LBB2638:
.LBB2635:
	.loc 2 247 0 discriminator 5
	ldr	x21, [x0,112]
.LVL602:
.LBE2635:
.LBE2638:
.LBE2641:
.LBE2644:
.LBE2647:
.LBE2650:
.LBE2679:
.LBB2680:
.LBB2664:
.LBB2663:
.LBB2662:
.LBB2661:
.LBB2660:
.LBB2659:
	ldr	x23, [x0,168]
.LBE2659:
.LBE2660:
.LBE2661:
.LBE2662:
.LBE2663:
.LBE2664:
.LBE2680:
.LBB2681:
.LBB2677:
.LBB2676:
.LBB2675:
.LBB2674:
.LBB2673:
.LBB2672:
	ldr	x22, [x0,120]
.LBE2672:
.LBE2673:
.LBE2674:
.LBE2675:
.LBE2676:
.LBE2677:
.LBE2681:
	.loc 1 1343 0
	ble	.L456
.L398:
	.loc 1 1346 0
	bl	global_dirtyable_memory
.LVL603:
	sxtw	x19, w19
	mov	x1, 62915
	mul	x0, x0, x19
	movk	x1, 0x5c28, lsl 16
	movk	x1, 0xc28f, lsl 32
	lsr	x19, x0, 2
	movk	x1, 0x28f5, lsl 48
	umulh	x19, x19, x1
	.loc 1 1348 0
	bl	pch_lowmem_check2
.LVL604:
	cmp	w0, wzr
	.loc 1 1346 0
	lsr	x19, x19, 2
.LVL605:
	.loc 1 1348 0
	bgt	.L400
.L455:
	cmp	x23, xzr
	csel	x23, x23, xzr, ge
	cmp	x22, xzr
	csel	x22, x22, xzr, ge
	cmp	x21, xzr
	csel	x21, x21, xzr, ge
	add	x23, x23, x22
	.loc 1 1342 0
	add	x21, x23, x21
.LVL606:
	.loc 1 1359 0
	cmp	x21, x19
	cset	w0, hi
	str	w0, [x20,428]
.LBE2686:
.LBE2726:
	.loc 1 1369 0
	cbnz	w0, .L402
.LBB2727:
.LBB2717:
	.loc 1 1280 0
	ldr	x19, [x28,13016]
.LVL607:
.LBB2690:
.LBB2691:
.LBB2692:
	.loc 2 247 0 discriminator 4
	ldr	w0, [x19,424]
.LBE2692:
.LBE2691:
.LBE2690:
	.loc 1 1281 0 discriminator 5
	cmp	w0, 3
	bls	.L457
.L403:
	.loc 1 1300 0 discriminator 5
	ldr	x1, [x28,14920]
.LBB2693:
.LBB2694:
	.loc 1 1272 0
	mov	x0, x19
.LBE2694:
.LBE2693:
.LBB2698:
.LBB2699:
.LBB2700:
	.loc 2 247 0 discriminator 4
	ldr	w3, [x28,1168]
.LBE2700:
.LBE2699:
.LBE2698:
.LBB2701:
.LBB2695:
	.loc 1 1272 0
	ldr	w2, [x19,332]
.LBE2695:
.LBE2701:
	.loc 1 1300 0 discriminator 5
	ldr	w1, [x1,1356]
	sub	w1, w1, #4
	.loc 1 1300 0 is_stmt 0 discriminator 7
	cmp	w3, w1
	mov	w3, 12
	mov	w1, 16
	csel	w1, w1, w3, hi
.LBB2702:
.LBB2696:
	.loc 1 1272 0 is_stmt 1
	cmp	w2, w1
	beq	.L410
	.loc 1 1274 0
	str	w1, [x19,332]
	.loc 1 1275 0
	bl	ktime_get
.LVL608:
	str	x0, [x19,368]
	ldr	x0, [x28,13016]
.L461:
.LBE2696:
.LBE2702:
.LBE2717:
.LBE2727:
.LBE2735:
.LBE2759:
.LBB2760:
.LBB2750:
	.loc 1 1251 0
	ldr	x1, [x28,13024]
	cbnz	x1, .L458
.LVL609:
.L396:
.LBE2750:
.LBE2760:
.LBE2780:
.LBE2783:
.LBE2786:
	.loc 1 1440 0
	adrp	x0, __stack_chk_guard
	ldr	x1, [x29,136]
	ldr	x0, [x0,#:lo12:__stack_chk_guard]
	cmp	x1, x0
	bne	.L459
	ldp	x19, x20, [sp,16]
	.cfi_remember_state
	.cfi_restore 20
	.cfi_restore 19
.LVL610:
	ldp	x21, x22, [sp,32]
	.cfi_restore 22
	.cfi_restore 21
.LVL611:
	ldp	x23, x24, [sp,48]
	.cfi_restore 24
	.cfi_restore 23
	ldp	x25, x26, [sp,64]
	.cfi_restore 26
	.cfi_restore 25
.LVL612:
	ldp	x27, x28, [sp,80]
	.cfi_restore 28
	.cfi_restore 27
	ldp	x29, x30, [sp], 144
	.cfi_restore 30
	.cfi_restore 29
	.cfi_def_cfa 31, 0
	ret
.LVL613:
.L457:
	.cfi_restore_state
.LBB2787:
.LBB2784:
.LBB2781:
.LBB2761:
.LBB2736:
.LBB2728:
.LBB2718:
	.loc 1 1281 0 discriminator 5
	ldr	x1, [x29,96]
	ldrb	w0, [x1,w0,uxtw]
	adr	x1, .Lrtx405
	add	x0, x1, w0, sxtb #2
	br	x0
.Lrtx405:
	.section	.rodata
	.align	0
	.align	2
.L405:
	.byte	(.L403 - .Lrtx405) / 4
	.byte	(.L406 - .Lrtx405) / 4
	.byte	(.L407 - .Lrtx405) / 4
	.byte	(.L408 - .Lrtx405) / 4
	.text
.LVL614:
.L402:
.LBE2718:
.LBE2728:
	.loc 1 1380 0
	ldr	x0, [x28,13016]
	bl	ufs_mq_async_fwb_mode_inflight_limit_calc.isra.23
.LVL615:
	ldr	x0, [x28,13016]
	b	.L410
.LVL616:
.L416:
.LBE2736:
.LBE2761:
	.loc 1 1423 0
	cmp	w0, 2
	beq	.L460
	.loc 1 1428 0
	mov	x0, x19
.LVL617:
	bl	__blk_mq_requeue_request
.LVL618:
.LBB2762:
.LBB2763:
	.loc 1 1213 0
	ldr	x20, [x28,13016]
.LVL619:
	.loc 1 1215 0
	mov	x0, x19
	mov	w1, 5
	bl	hisi_blk_latency_req_check
.LVL620:
	.loc 1 1216 0
	ldr	x0, [x28,13024]
	cbz	x0, .L419
	.loc 1 1216 0 is_stmt 0 discriminator 1
	ldr	x21, [x0,208]
.LVL621:
	cbz	x21, .L419
.LBB2764:
	.loc 1 1218 0 is_stmt 1
	ldr	x0, [x21]
	ldr	x0, [x0,32]
	cbz	x0, .L419
.LBB2765:
.LBB2766:
	.loc 9 291 0
	add	x20, x20, 304
.LVL622:
.LBE2766:
.LBE2765:
	.loc 1 1219 0 discriminator 1
	mov	x0, x20
	bl	_raw_spin_lock_irqsave
.LVL623:
	mov	x22, x0
.LVL624:
	.loc 1 1220 0
	ldr	x2, [x21]
	mov	x0, x19
	mov	x1, x28
	ldr	x2, [x2,32]
	blr	x2
.LVL625:
.LBB2767:
.LBB2768:
	.loc 9 362 0
	mov	x0, x20
	mov	x1, x22
	bl	_raw_spin_unlock_irqrestore
.LVL626:
.L419:
.LBE2768:
.LBE2767:
.LBE2764:
.LBE2763:
.LBE2762:
.LBB2769:
.LBB2770:
.LBB2771:
.LBB2772:
	.loc 10 492 0
	adrp	x1, .LANCHOR0+8
.LBE2772:
.LBE2771:
	.loc 1 1185 0
	ldr	x2, [x28,13016]
.LBB2774:
.LBB2773:
	.loc 10 492 0
	mov	x3, 3
	mov	w0, 8
	add	x2, x2, 128
	ldr	x1, [x1,#:lo12:.LANCHOR0+8]
	bl	queue_delayed_work_on
.LVL627:
	b	.L396
.LVL628:
.L407:
.LBE2773:
.LBE2774:
.LBE2770:
.LBE2769:
.LBB2775:
.LBB2737:
.LBB2729:
.LBB2719:
.LBB2703:
.LBB2704:
	.loc 1 1272 0
	ldr	w1, [x19,332]
	mov	x0, x19
	cmp	w1, 1
	beq	.L410
	.loc 1 1274 0
	mov	w0, 1
	str	w0, [x19,332]
	.loc 1 1275 0
	bl	ktime_get
.LVL629:
	str	x0, [x19,368]
	ldr	x0, [x28,13016]
	b	.L410
.L406:
.LBE2704:
.LBE2703:
.LBB2705:
.LBB2706:
	.loc 1 1272 0
	ldr	w1, [x19,332]
	mov	x0, x19
	cmp	w1, 2
	beq	.L410
	.loc 1 1274 0
	str	w27, [x19,332]
	.loc 1 1275 0
	bl	ktime_get
.LVL630:
	str	x0, [x19,368]
	ldr	x0, [x28,13016]
	b	.L410
.L408:
.LBE2706:
.LBE2705:
	.loc 1 1293 0 discriminator 5
	ldr	x1, [x28,14920]
.LBB2707:
.LBB2708:
	.loc 1 1272 0
	mov	x0, x19
.LBE2708:
.LBE2707:
.LBB2711:
.LBB2712:
.LBB2713:
	.loc 2 247 0 discriminator 4
	ldr	w3, [x28,1168]
.LBE2713:
.LBE2712:
.LBE2711:
.LBB2714:
.LBB2709:
	.loc 1 1272 0
	ldr	w2, [x19,332]
.LBE2709:
.LBE2714:
	.loc 1 1293 0 discriminator 5
	ldr	w1, [x1,1356]
	sub	w1, w1, #4
	.loc 1 1293 0 is_stmt 0 discriminator 7
	cmp	w3, w1
	mov	w3, 8
	mov	w1, 12
	csel	w1, w1, w3, hi
.LBB2715:
.LBB2710:
	.loc 1 1272 0 is_stmt 1
	cmp	w2, w1
	beq	.L410
.LBE2710:
.LBE2715:
.LBB2716:
.LBB2697:
	.loc 1 1274 0
	str	w1, [x19,332]
	.loc 1 1275 0
	bl	ktime_get
.LVL631:
	str	x0, [x19,368]
	ldr	x0, [x28,13016]
	b	.L461
.LVL632:
.L460:
.LBE2697:
.LBE2716:
.LBE2719:
.LBE2729:
.LBE2737:
.LBE2775:
	.loc 1 1424 0
	mov	w1, -5
	.loc 1 1425 0
	mov	x0, x19
.LVL633:
	.loc 1 1424 0
	str	w1, [x19,564]
	.loc 1 1425 0
	bl	blk_mq_end_request
.LVL634:
	ldr	x20, [x28,13016]
	b	.L462
.LVL635:
.L459:
.LBE2781:
.LBE2784:
.LBE2787:
	.loc 1 1440 0
	bl	__stack_chk_fail
.LVL636:
	.cfi_endproc
.LFE3199:
	.size	ufs_mq_async_io_dispatch_work_fn, .-ufs_mq_async_io_dispatch_work_fn
	.align	2
	.type	ufs_mq_run_requeue, %function
ufs_mq_run_requeue:
.LFB3218:
	.loc 1 1657 0
	.cfi_startproc
.LVL637:
	stp	x29, x30, [sp, -64]!
	.cfi_def_cfa_offset 64
	.cfi_offset 29, -64
	.cfi_offset 30, -56
.LBB2806:
.LBB2807:
.LBB2808:
.LBB2809:
.LBB2810:
	.loc 10 492 0
	mov	x3, 0
.LBE2810:
.LBE2809:
.LBE2808:
.LBE2807:
.LBE2806:
	.loc 1 1657 0
	add	x29, sp, 0
	.cfi_def_cfa_register 29
	stp	x19, x20, [sp,16]
	.cfi_offset 19, -48
	.cfi_offset 20, -40
	mov	x19, x0
.LBB2819:
.LBB2817:
.LBB2815:
.LBB2813:
.LBB2811:
	.loc 10 492 0
	mov	w0, 8
.LVL638:
.LBE2811:
.LBE2813:
.LBE2815:
.LBE2817:
.LBE2819:
	.loc 1 1657 0
	stp	x21, x22, [sp,32]
	.cfi_offset 21, -32
	.cfi_offset 22, -24
.LBB2820:
.LBB2818:
.LBB2816:
	.loc 1 764 0
	adrp	x21, .LANCHOR0
	ldr	x2, [x19,13016]
.LBB2814:
.LBB2812:
	.loc 10 492 0
	ldr	x1, [x21,#:lo12:.LANCHOR0]
	add	x2, x2, 24
	bl	queue_delayed_work_on
.LVL639:
.LBE2812:
.LBE2814:
.LBE2816:
.LBE2818:
.LBE2820:
.LBB2821:
.LBB2822:
	.loc 1 1231 0
	ldr	x0, [x19,13024]
	.loc 1 1230 0
	ldr	x2, [x19,13016]
.LVL640:
	.loc 1 1231 0
	cbz	x0, .L464
	.loc 1 1231 0 is_stmt 0 discriminator 1
	ldr	x22, [x0,208]
	cbz	x22, .L464
.LBB2823:
	.loc 1 1233 0 is_stmt 1
	ldr	x0, [x22]
	ldr	x0, [x0,48]
	cbz	x0, .L464
.LBB2824:
.LBB2825:
	.loc 9 291 0
	add	x20, x2, 304
.LBE2825:
.LBE2824:
	.loc 1 1234 0 discriminator 1
	mov	x0, x20
	bl	_raw_spin_lock_irqsave
.LVL641:
	str	x0, [x29,56]
	.loc 1 1235 0
	ldr	x2, [x22]
	mov	x0, x19
.LVL642:
	ldr	x2, [x2,48]
	blr	x2
.LVL643:
	uxtb	w22, w0
.LVL644:
.LBB2826:
.LBB2827:
	.loc 9 362 0
	ldr	x1, [x29,56]
.LVL645:
	mov	x0, x20
	bl	_raw_spin_unlock_irqrestore
.LVL646:
.LBE2827:
.LBE2826:
.LBE2823:
.LBE2822:
.LBE2821:
	.loc 1 1659 0
	cbz	w22, .L469
	.loc 1 1662 0
	ldp	x19, x20, [sp,16]
	.cfi_remember_state
	.cfi_restore 20
	.cfi_restore 19
.LVL647:
	ldp	x21, x22, [sp,32]
	.cfi_restore 22
	.cfi_restore 21
.LVL648:
	mov	w0, 0
	ldp	x29, x30, [sp], 64
	.cfi_restore 30
	.cfi_restore 29
	.cfi_def_cfa 31, 0
	ret
.LVL649:
.L469:
	.cfi_restore_state
	ldr	x2, [x19,13016]
.LVL650:
.L464:
.LBB2828:
.LBB2829:
.LBB2830:
	.loc 1 1185 0
	add	x21, x21, :lo12:.LANCHOR0
.LBB2831:
.LBB2832:
	.loc 10 492 0
	add	x2, x2, 128
.LVL651:
	mov	x3, 0
	mov	w0, 8
	ldr	x1, [x21,8]
	bl	queue_delayed_work_on
.LVL652:
.LBE2832:
.LBE2831:
.LBE2830:
.LBE2829:
.LBE2828:
	.loc 1 1662 0
	mov	w0, 0
	ldp	x19, x20, [sp,16]
	.cfi_restore 19
	.cfi_restore 20
.LVL653:
	ldp	x21, x22, [sp,32]
	.cfi_restore 21
	.cfi_restore 22
.LVL654:
	ldp	x29, x30, [sp], 64
	.cfi_restore 29
	.cfi_restore 30
	.cfi_def_cfa 31, 0
	ret
	.cfi_endproc
.LFE3218:
	.size	ufs_mq_run_requeue, .-ufs_mq_run_requeue
	.align	2
	.type	ufs_mq_exec_queue, %function
ufs_mq_exec_queue:
.LFB3215:
	.loc 1 1633 0
	.cfi_startproc
.LVL655:
	stp	x29, x30, [sp, -64]!
	.cfi_def_cfa_offset 64
	.cfi_offset 29, -64
	.cfi_offset 30, -56
	add	x29, sp, 0
	.cfi_def_cfa_register 29
	stp	x19, x20, [sp,16]
	.cfi_offset 19, -48
	.cfi_offset 20, -40
	mov	x20, x0
	str	x21, [sp,32]
	.cfi_offset 21, -32
	.loc 1 1634 0
	bl	ufs_mq_sync_dispatch
.LVL656:
.LBB2855:
.LBB2856:
	.loc 1 1231 0
	ldr	x0, [x20,13024]
	.loc 1 1230 0
	ldr	x2, [x20,13016]
.LVL657:
	.loc 1 1231 0
	cbz	x0, .L471
	.loc 1 1231 0 is_stmt 0 discriminator 1
	ldr	x21, [x0,208]
	cbz	x21, .L471
.LBB2857:
	.loc 1 1233 0 is_stmt 1
	ldr	x0, [x21]
	ldr	x0, [x0,48]
	cbz	x0, .L471
.LBB2858:
.LBB2859:
	.loc 9 291 0
	add	x19, x2, 304
.LBE2859:
.LBE2858:
	.loc 1 1234 0 discriminator 1
	mov	x0, x19
	bl	_raw_spin_lock_irqsave
.LVL658:
	str	x0, [x29,56]
	.loc 1 1235 0
	ldr	x2, [x21]
	mov	x0, x20
.LVL659:
	ldr	x2, [x2,48]
	blr	x2
.LVL660:
	uxtb	w21, w0
.LVL661:
.LBB2860:
.LBB2861:
	.loc 9 362 0
	ldr	x1, [x29,56]
.LVL662:
	mov	x0, x19
	bl	_raw_spin_unlock_irqrestore
.LVL663:
.LBE2861:
.LBE2860:
.LBE2857:
.LBE2856:
.LBE2855:
	.loc 1 1635 0
	cbz	w21, .L476
	.loc 1 1638 0
	ldp	x19, x20, [sp,16]
	.cfi_remember_state
	.cfi_restore 20
	.cfi_restore 19
.LVL664:
	ldr	x21, [sp,32]
	.cfi_restore 21
.LVL665:
	mov	w0, 0
	ldp	x29, x30, [sp], 64
	.cfi_restore 30
	.cfi_restore 29
	.cfi_def_cfa 31, 0
	ret
.LVL666:
.L476:
	.cfi_restore_state
	ldr	x2, [x20,13016]
.LVL667:
.L471:
.LBB2862:
.LBB2863:
.LBB2864:
.LBB2865:
.LBB2866:
.LBB2867:
	.loc 10 492 0
	adrp	x1, .LANCHOR0+8
	add	x2, x2, 128
.LVL668:
	mov	x3, 0
	mov	w0, 8
	ldr	x1, [x1,#:lo12:.LANCHOR0+8]
	bl	queue_delayed_work_on
.LVL669:
.LBE2867:
.LBE2866:
.LBE2865:
.LBE2864:
.LBE2863:
.LBE2862:
	.loc 1 1638 0
	ldr	x21, [sp,32]
	.cfi_restore 21
.LVL670:
	ldp	x19, x20, [sp,16]
	.cfi_restore 19
	.cfi_restore 20
.LVL671:
	mov	w0, 0
	ldp	x29, x30, [sp], 64
	.cfi_restore 29
	.cfi_restore 30
	.cfi_def_cfa 31, 0
	ret
	.cfi_endproc
.LFE3215:
	.size	ufs_mq_exec_queue, .-ufs_mq_exec_queue
	.align	2
	.type	ufs_mq_io_guard_work_fn, %function
ufs_mq_io_guard_work_fn:
.LFB3204:
	.loc 1 1484 0
	.cfi_startproc
.LVL672:
	stp	x29, x30, [sp, -64]!
	.cfi_def_cfa_offset 64
	.cfi_offset 29, -64
	.cfi_offset 30, -56
	add	x29, sp, 0
	.cfi_def_cfa_register 29
	stp	x21, x22, [sp,32]
	.cfi_offset 21, -32
	.cfi_offset 22, -24
.LBB2906:
.LBB2907:
	.loc 9 302 0
	adrp	x22, .LANCHOR2
.LBE2907:
.LBE2906:
	.loc 1 1484 0
	str	x23, [sp,48]
	.cfi_offset 23, -16
.LBB2910:
.LBB2908:
	.loc 9 302 0
	add	x23, x22, :lo12:.LANCHOR2
	adrp	x21, .LANCHOR0
	mov	x0, x23
.LVL673:
.LBE2908:
.LBE2910:
	.loc 1 1484 0
	stp	x19, x20, [sp,16]
	.cfi_offset 19, -48
	.cfi_offset 20, -40
.LBB2911:
.LBB2909:
	.loc 9 302 0
	bl	_raw_spin_lock
.LVL674:
.LBE2909:
.LBE2911:
.LBB2912:
.LBB2913:
	.loc 9 347 0
	mov	x20, x23
.LBE2913:
.LBE2912:
.LBB2915:
	.loc 1 1488 0
	ldr	x19, [x23,32]!
.LVL675:
.LBE2915:
	.loc 1 1488 0 is_stmt 0 discriminator 1
	cmp	x19, x23
.LBB2916:
	.loc 1 1488 0
	sub	x19, x19, #432
.LVL676:
.LBE2916:
	.loc 1 1488 0 discriminator 1
	bne	.L487
	b	.L482
.L479:
.LBB2917:
.LBB2918:
.LBB2919:
.LBB2920:
.LBB2921:
	.loc 2 247 0 is_stmt 1 discriminator 4
	ldr	w0, [x1,1168]
.LBE2921:
.LBE2920:
.LBE2919:
	.loc 1 1478 0 discriminator 5
	cbz	w0, .L480
.LBB2922:
.LBB2923:
.LBB2924:
	.loc 2 247 0 discriminator 4
	ldr	w0, [x19,16]
.LBE2924:
.LBE2923:
.LBE2922:
	.loc 1 1478 0
	cbnz	w0, .L480
.LBB2925:
.LBB2926:
.LBB2927:
	.loc 1 1185 0
	add	x4, x21, :lo12:.LANCHOR0
	ldr	x2, [x1,13016]
.LBB2928:
.LBB2929:
	.loc 10 492 0
	mov	x3, 0
	mov	w0, 8
	add	x2, x2, 128
	ldr	x1, [x4,8]
	bl	queue_delayed_work_on
.LVL677:
.L480:
.LBE2929:
.LBE2928:
.LBE2927:
.LBE2926:
.LBE2925:
.LBE2918:
.LBE2917:
.LBB2943:
.LBB2944:
	.loc 9 302 0
	mov	x0, x20
	bl	_raw_spin_lock
.LVL678:
.LBE2944:
.LBE2943:
.LBB2945:
	.loc 1 1488 0 discriminator 3
	ldr	x19, [x19,432]
.LVL679:
.LBE2945:
	.loc 1 1488 0 is_stmt 0 discriminator 1
	cmp	x19, x23
.LBB2946:
	.loc 1 1488 0 discriminator 3
	sub	x19, x19, #432
.LVL680:
.LBE2946:
	.loc 1 1488 0 discriminator 1
	beq	.L482
.L487:
.LBB2947:
.LBB2914:
	.loc 9 347 0 is_stmt 1
	mov	x0, x20
	bl	_raw_spin_unlock
.LVL681:
.LBE2914:
.LBE2947:
.LBB2948:
.LBB2942:
.LBB2930:
	.loc 1 1473 0 discriminator 1
	ldr	x1, [x19]
.LBB2931:
.LBB2932:
	.loc 2 247 0 discriminator 4
	ldr	w0, [x1,1172]
.LBE2932:
.LBE2931:
.LBE2930:
.LBB2933:
.LBB2934:
.LBB2935:
	ldr	w2, [x1,1164]
.LBE2935:
.LBE2934:
.LBE2933:
	.loc 1 1473 0
	cmn	w0, w2
	beq	.L479
.LBB2936:
.LBB2937:
.LBB2938:
	.loc 2 247 0 discriminator 4
	ldr	w0, [x19,8]
.LBE2938:
.LBE2937:
.LBE2936:
.LBB2939:
.LBB2940:
.LBB2941:
	ldr	w2, [x19,12]
.LBE2941:
.LBE2940:
.LBE2939:
	.loc 1 1474 0
	cmn	w0, w2
	bne	.L479
	.loc 1 1476 0
	mov	x0, x1
	bl	ufs_mq_sync_dispatch
.LVL682:
	ldr	x1, [x19]
	b	.L479
.L482:
.LBE2942:
.LBE2948:
.LBB2949:
.LBB2950:
	.loc 9 347 0
	add	x0, x22, :lo12:.LANCHOR2
.LBE2950:
.LBE2949:
	.loc 1 1494 0
	add	x21, x21, :lo12:.LANCHOR0
.LBB2952:
.LBB2951:
	.loc 9 347 0
	bl	_raw_spin_unlock
.LVL683:
.LBE2951:
.LBE2952:
.LBB2953:
.LBB2954:
	.loc 10 492 0
	ldr	x1, [x21,16]
	add	x2, x21, 24
	mov	x3, 500
	mov	w0, 8
	bl	queue_delayed_work_on
.LVL684:
.LBE2954:
.LBE2953:
	.loc 1 1495 0
	ldr	x23, [sp,48]
	.cfi_restore 23
	ldp	x19, x20, [sp,16]
	.cfi_restore 20
	.cfi_restore 19
.LVL685:
	ldp	x21, x22, [sp,32]
	.cfi_restore 22
	.cfi_restore 21
	ldp	x29, x30, [sp], 64
	.cfi_restore 30
	.cfi_restore 29
	.cfi_def_cfa 31, 0
	ret
	.cfi_endproc
.LFE3204:
	.size	ufs_mq_io_guard_work_fn, .-ufs_mq_io_guard_work_fn
	.align	2
	.type	ufs_mq_run_hw_queue, %function
ufs_mq_run_hw_queue:
.LFB3216:
	.loc 1 1641 0
	.cfi_startproc
.LVL686:
	stp	x29, x30, [sp, -64]!
	.cfi_def_cfa_offset 64
	.cfi_offset 29, -64
	.cfi_offset 30, -56
.LBB2973:
.LBB2974:
.LBB2975:
.LBB2976:
.LBB2977:
	.loc 10 492 0
	mov	x3, 0
.LBE2977:
.LBE2976:
.LBE2975:
.LBE2974:
.LBE2973:
	.loc 1 1641 0
	add	x29, sp, 0
	.cfi_def_cfa_register 29
	stp	x19, x20, [sp,16]
	.cfi_offset 19, -48
	.cfi_offset 20, -40
	mov	x19, x0
.LBB2986:
.LBB2984:
.LBB2982:
.LBB2980:
.LBB2978:
	.loc 10 492 0
	mov	w0, 8
.LVL687:
.LBE2978:
.LBE2980:
.LBE2982:
.LBE2984:
.LBE2986:
	.loc 1 1641 0
	stp	x21, x22, [sp,32]
	.cfi_offset 21, -32
	.cfi_offset 22, -24
.LBB2987:
.LBB2985:
.LBB2983:
	.loc 1 764 0
	adrp	x21, .LANCHOR0
	ldr	x2, [x19,13016]
.LBB2981:
.LBB2979:
	.loc 10 492 0
	ldr	x1, [x21,#:lo12:.LANCHOR0]
	add	x2, x2, 24
	bl	queue_delayed_work_on
.LVL688:
.LBE2979:
.LBE2981:
.LBE2983:
.LBE2985:
.LBE2987:
.LBB2988:
.LBB2989:
	.loc 1 1231 0
	ldr	x0, [x19,13024]
	.loc 1 1230 0
	ldr	x2, [x19,13016]
.LVL689:
	.loc 1 1231 0
	cbz	x0, .L493
	.loc 1 1231 0 is_stmt 0 discriminator 1
	ldr	x22, [x0,208]
	cbz	x22, .L493
.LBB2990:
	.loc 1 1233 0 is_stmt 1
	ldr	x0, [x22]
	ldr	x0, [x0,48]
	cbz	x0, .L493
.LBB2991:
.LBB2992:
	.loc 9 291 0
	add	x20, x2, 304
.LBE2992:
.LBE2991:
	.loc 1 1234 0 discriminator 1
	mov	x0, x20
	bl	_raw_spin_lock_irqsave
.LVL690:
	str	x0, [x29,56]
	.loc 1 1235 0
	ldr	x2, [x22]
	mov	x0, x19
.LVL691:
	ldr	x2, [x2,48]
	blr	x2
.LVL692:
	uxtb	w22, w0
.LVL693:
.LBB2993:
.LBB2994:
	.loc 9 362 0
	ldr	x1, [x29,56]
.LVL694:
	mov	x0, x20
	bl	_raw_spin_unlock_irqrestore
.LVL695:
.LBE2994:
.LBE2993:
.LBE2990:
.LBE2989:
.LBE2988:
	.loc 1 1643 0
	cbz	w22, .L498
	.loc 1 1646 0
	ldp	x19, x20, [sp,16]
	.cfi_remember_state
	.cfi_restore 20
	.cfi_restore 19
.LVL696:
	ldp	x21, x22, [sp,32]
	.cfi_restore 22
	.cfi_restore 21
.LVL697:
	mov	w0, 0
	ldp	x29, x30, [sp], 64
	.cfi_restore 30
	.cfi_restore 29
	.cfi_def_cfa 31, 0
	ret
.LVL698:
.L498:
	.cfi_restore_state
	ldr	x2, [x19,13016]
.LVL699:
.L493:
.LBB2995:
.LBB2996:
.LBB2997:
	.loc 1 1185 0
	add	x21, x21, :lo12:.LANCHOR0
.LBB2998:
.LBB2999:
	.loc 10 492 0
	add	x2, x2, 128
.LVL700:
	mov	x3, 0
	mov	w0, 8
	ldr	x1, [x21,8]
	bl	queue_delayed_work_on
.LVL701:
.LBE2999:
.LBE2998:
.LBE2997:
.LBE2996:
.LBE2995:
	.loc 1 1646 0
	mov	w0, 0
	ldp	x19, x20, [sp,16]
	.cfi_restore 19
	.cfi_restore 20
.LVL702:
	ldp	x21, x22, [sp,32]
	.cfi_restore 21
	.cfi_restore 22
.LVL703:
	ldp	x29, x30, [sp], 64
	.cfi_restore 29
	.cfi_restore 30
	.cfi_def_cfa 31, 0
	ret
	.cfi_endproc
.LFE3216:
	.size	ufs_mq_run_hw_queue, .-ufs_mq_run_hw_queue
	.align	2
	.type	ufs_mq_req_insert, %function
ufs_mq_req_insert:
.LFB3209:
	.loc 1 1549 0
	.cfi_startproc
.LVL704:
	stp	x29, x30, [sp, -48]!
	.cfi_def_cfa_offset 48
	.cfi_offset 29, -48
	.cfi_offset 30, -40
	mov	x3, x1
	add	x29, sp, 0
	.cfi_def_cfa_register 29
	stp	x19, x20, [sp,16]
	str	x21, [sp,32]
	.cfi_offset 19, -32
	.cfi_offset 20, -24
	.cfi_offset 21, -16
	.loc 1 1549 0
	mov	x20, x0
	.loc 1 1550 0
	ldr	x2, [x0,88]
.LVL705:
	tbz	x2, 3, .L505
.L500:
	ldr	x19, [x3,13016]
.LVL706:
.LBB3013:
.LBB3014:
	.loc 1 776 0
	mov	w1, 4
.LVL707:
	mov	x0, x20
.LBB3015:
.LBB3016:
	.loc 9 291 0
	add	x21, x19, 280
.LBE3016:
.LBE3015:
	.loc 1 776 0
	bl	hisi_blk_latency_req_check
.LVL708:
	.loc 1 777 0 discriminator 1
	mov	x0, x21
	bl	_raw_spin_lock_irqsave
.LVL709:
	mov	x1, x0
.LVL710:
	.loc 1 778 0
	ldr	x2, [x20,88]
	.loc 1 778 0 is_stmt 0 discriminator 1
	add	x3, x19, 232
	add	x19, x19, 248
.LVL711:
.LBB3017:
.LBB3018:
	.loc 9 362 0 is_stmt 1
	mov	x0, x21
.LBE3018:
.LBE3017:
	.loc 1 778 0
	and	x2, x2, 2048
	.loc 1 778 0 is_stmt 0 discriminator 1
	cmp	x2, xzr
	csel	x19, x19, x3, eq
.LBB3020:
.LBB3021:
	.loc 3 92 0 is_stmt 1
	ldr	x2, [x19,8]
.LBB3022:
.LBB3023:
	.loc 3 62 0
	str	x20, [x19,8]
	.loc 3 63 0
	str	x19, [x20]
	.loc 3 64 0
	str	x2, [x20,8]
.LBB3024:
.LBB3025:
.LBB3026:
	.loc 2 276 0
	str	x20, [x2]
.LBE3026:
.LBE3025:
.LBE3024:
.LBE3023:
.LBE3022:
.LBE3021:
.LBE3020:
.LBB3027:
.LBB3019:
	.loc 9 362 0
	bl	_raw_spin_unlock_irqrestore
.LVL712:
.L504:
.LBE3019:
.LBE3027:
.LBE3014:
.LBE3013:
	.loc 1 1555 0
	mov	w0, 0
	ldr	x21, [sp,32]
	.cfi_remember_state
	.cfi_restore 21
	ldp	x19, x20, [sp,16]
	.cfi_restore 20
	.cfi_restore 19
.LVL713:
	ldp	x29, x30, [sp], 48
	.cfi_restore 30
	.cfi_restore 29
	.cfi_def_cfa 31, 0
	ret
.LVL714:
.L505:
	.cfi_restore_state
	.loc 1 1550 0 discriminator 1
	ldr	w2, [x0,84]
	cmp	w2, 1
	bne	.L500
	.loc 1 1553 0
	bl	ufs_mq_insert_async_list
.LVL715:
	b	.L504
	.cfi_endproc
.LFE3209:
	.size	ufs_mq_req_insert, .-ufs_mq_req_insert
	.align	2
	.type	ufs_mq_req_requeue, %function
ufs_mq_req_requeue:
.LFB3210:
	.loc 1 1558 0
	.cfi_startproc
.LVL716:
	stp	x29, x30, [sp, -48]!
	.cfi_def_cfa_offset 48
	.cfi_offset 29, -48
	.cfi_offset 30, -40
	mov	x3, x1
	add	x29, sp, 0
	.cfi_def_cfa_register 29
	stp	x19, x20, [sp,16]
	str	x21, [sp,32]
	.cfi_offset 19, -32
	.cfi_offset 20, -24
	.cfi_offset 21, -16
	.loc 1 1558 0
	mov	x20, x0
	.loc 1 1559 0
	ldr	x2, [x0,88]
	tbz	x2, 3, .L512
.L507:
	ldr	x19, [x3,13016]
.LVL717:
.LBB3041:
.LBB3042:
	.loc 1 776 0
	mov	w1, 4
.LVL718:
	mov	x0, x20
.LBB3043:
.LBB3044:
	.loc 9 291 0
	add	x21, x19, 280
.LBE3044:
.LBE3043:
	.loc 1 776 0
	bl	hisi_blk_latency_req_check
.LVL719:
	.loc 1 777 0 discriminator 1
	mov	x0, x21
	bl	_raw_spin_lock_irqsave
.LVL720:
	mov	x1, x0
.LVL721:
	.loc 1 778 0
	ldr	x2, [x20,88]
	.loc 1 778 0 is_stmt 0 discriminator 1
	add	x3, x19, 232
	add	x19, x19, 248
.LVL722:
.LBB3045:
.LBB3046:
	.loc 9 362 0 is_stmt 1
	mov	x0, x21
.LBE3046:
.LBE3045:
	.loc 1 778 0
	and	x2, x2, 2048
	.loc 1 778 0 is_stmt 0 discriminator 1
	cmp	x2, xzr
	csel	x19, x19, x3, eq
.LBB3048:
.LBB3049:
	.loc 3 92 0 is_stmt 1
	ldr	x2, [x19,8]
.LBB3050:
.LBB3051:
	.loc 3 62 0
	str	x20, [x19,8]
	.loc 3 63 0
	str	x19, [x20]
	.loc 3 64 0
	str	x2, [x20,8]
.LBB3052:
.LBB3053:
.LBB3054:
	.loc 2 276 0
	str	x20, [x2]
.LBE3054:
.LBE3053:
.LBE3052:
.LBE3051:
.LBE3050:
.LBE3049:
.LBE3048:
.LBB3055:
.LBB3047:
	.loc 9 362 0
	bl	_raw_spin_unlock_irqrestore
.LVL723:
.L511:
.LBE3047:
.LBE3055:
.LBE3042:
.LBE3041:
	.loc 1 1564 0
	mov	w0, 0
	ldr	x21, [sp,32]
	.cfi_remember_state
	.cfi_restore 21
	ldp	x19, x20, [sp,16]
	.cfi_restore 20
	.cfi_restore 19
.LVL724:
	ldp	x29, x30, [sp], 48
	.cfi_restore 30
	.cfi_restore 29
	.cfi_def_cfa 31, 0
	ret
.LVL725:
.L512:
	.cfi_restore_state
	.loc 1 1559 0 discriminator 1
	ldr	w2, [x0,84]
	cmp	w2, 1
	bne	.L507
	.loc 1 1562 0
	bl	ufs_mq_insert_async_list
.LVL726:
	b	.L511
	.cfi_endproc
.LFE3210:
	.size	ufs_mq_req_requeue, .-ufs_mq_req_requeue
	.align	2
	.global	ufs_mq_merge_queue_io
	.type	ufs_mq_merge_queue_io, %function
ufs_mq_merge_queue_io:
.LFB3172:
	.loc 1 833 0
	.cfi_startproc
.LVL727:
	stp	x29, x30, [sp, -96]!
	.cfi_def_cfa_offset 96
	.cfi_offset 29, -96
	.cfi_offset 30, -88
.LBB3080:
.LBB3081:
	.file 19 "/mnt/disk/jenkins/ci/workspace/chipset_pipeline_release/opensource/component_code/vendor/huawei/extra/build/build_script/kirin_kernel_release/kernel/include/linux/bio.h"
	.loc 19 99 0
	mov	w4, 768
.LBE3081:
.LBE3080:
	.loc 1 833 0
	add	x29, sp, 0
	.cfi_def_cfa_register 29
	stp	x19, x20, [sp,16]
	stp	x21, x22, [sp,32]
	stp	x23, x24, [sp,48]
	str	x25, [sp,64]
	.cfi_offset 19, -80
	.cfi_offset 20, -72
	.cfi_offset 21, -64
	.cfi_offset 22, -56
	.cfi_offset 23, -48
	.cfi_offset 24, -40
	.cfi_offset 25, -32
	.loc 1 833 0
	mov	x21, x0
.LBB3085:
.LBB3082:
	.loc 19 99 0
	movk	w4, 0x807, lsl 16
.LBE3082:
.LBE3085:
	.loc 1 833 0
	mov	x20, x1
.LBB3086:
.LBB3083:
	.loc 19 99 0
	ldr	w0, [x3,20]
.LVL728:
.LBE3083:
.LBE3086:
	.loc 1 833 0
	mov	x19, x2
.LBB3087:
.LBB3084:
	.loc 19 99 0
	tst	w0, w4
	bne	.L522
.LBE3084:
.LBE3087:
	.loc 1 834 0 discriminator 1
	ldr	w0, [x2,84]
	cmp	w0, 2
	beq	.L522
.LBB3088:
.LBB3089:
.LBB3090:
	.loc 9 302 0
	mov	x0, x20
	str	x3, [x29,88]
.LBE3090:
.LBE3089:
	.loc 1 843 0
	ldr	x22, [x21,120]
.LVL729:
.LBB3092:
.LBB3091:
	.loc 9 302 0
	bl	_raw_spin_lock
.LVL730:
.LBE3091:
.LBE3092:
.LBB3093:
.LBB3094:
	.loc 1 816 0
	ldr	x3, [x29,88]
.LVL731:
	.loc 1 815 0
	ldr	x23, [x22,13016]
.LVL732:
	.loc 1 816 0
	ldr	w0, [x3,20]
	tbnz	x0, 3, .L521
	.loc 1 818 0
	ldr	x0, [x22,13024]
	cbz	x0, .L521
	.loc 1 818 0 is_stmt 0 discriminator 1
	ldr	x24, [x0,208]
	cbz	x24, .L521
.LBB3095:
	.loc 1 820 0 is_stmt 1
	ldr	x0, [x24]
	ldr	x0, [x0,40]
	cbz	x0, .L521
.LBB3096:
.LBB3097:
	.loc 9 291 0
	add	x23, x23, 304
.LVL733:
	str	x3, [x29,88]
.LBE3097:
.LBE3096:
	.loc 1 821 0 discriminator 1
	mov	x0, x23
	bl	_raw_spin_lock_irqsave
.LVL734:
	mov	x25, x0
.LVL735:
	.loc 1 822 0
	ldr	x2, [x24]
	mov	x1, x22
	ldr	x3, [x29,88]
.LVL736:
	ldr	x2, [x2,40]
	mov	x0, x3
	blr	x2
.LVL737:
	uxtb	w22, w0
.LVL738:
.LBB3098:
.LBB3099:
	.loc 9 362 0
	mov	x1, x25
	mov	x0, x23
	bl	_raw_spin_unlock_irqrestore
.LVL739:
.LBE3099:
.LBE3098:
.LBE3095:
.LBE3094:
.LBE3093:
	.loc 1 847 0
	ldr	x3, [x29,88]
.LVL740:
	cbz	w22, .L521
.LBB3100:
.LBB3101:
	.loc 9 347 0
	mov	x0, x20
	bl	_raw_spin_unlock
.LVL741:
.LBE3101:
.LBE3100:
	.loc 1 853 0
	mov	x0, x21
	mov	x1, x20
	mov	x2, x19
	bl	__blk_mq_free_request
.LVL742:
.LBE3088:
	.loc 1 856 0
	ldr	x25, [sp,64]
	.cfi_remember_state
	.cfi_restore 25
.LVL743:
	ldp	x19, x20, [sp,16]
	.cfi_restore 19
	.cfi_restore 20
.LVL744:
	ldp	x21, x22, [sp,32]
	.cfi_restore 21
	.cfi_restore 22
.LVL745:
	ldp	x23, x24, [sp,48]
	.cfi_restore 23
	.cfi_restore 24
.LBB3104:
	.loc 1 854 0
	mov	w0, 1
.LBE3104:
	.loc 1 856 0
	ldp	x29, x30, [sp], 96
	.cfi_restore 29
	.cfi_restore 30
	.cfi_def_cfa 31, 0
	ret
.LVL746:
.L522:
	.cfi_restore_state
.LBB3105:
.LBB3106:
	.loc 1 807 0
	mov	x1, x3
	mov	x0, x19
	bl	init_request_from_bio
.LVL747:
	.loc 1 808 0
	mov	x0, x19
	mov	w1, 1
	bl	blk_account_io_start
.LVL748:
.LBE3106:
.LBE3105:
.LBB3107:
.LBB3108:
	.loc 9 302 0
	mov	x0, x20
	bl	_raw_spin_lock
.LVL749:
.L515:
.LBE3108:
.LBE3107:
.LBB3109:
.LBB3110:
	.loc 1 1550 0
	ldr	x0, [x19,88]
.LBE3110:
.LBE3109:
	.loc 1 838 0
	ldr	x1, [x21,120]
.LBB3113:
.LBB3111:
	.loc 1 1550 0
	tbz	x0, 3, .L541
.L516:
	.loc 1 1551 0
	ldr	x1, [x1,13016]
	mov	x0, x19
	bl	ufs_mq_insert_sync_list.isra.25
.LVL750:
.L518:
.LBE3111:
.LBE3113:
.LBB3114:
.LBB3115:
	.loc 9 347 0
	mov	x0, x20
	bl	_raw_spin_unlock
.LVL751:
.LBE3115:
.LBE3114:
	.loc 1 856 0
	ldr	x25, [sp,64]
	.cfi_remember_state
	.cfi_restore 25
.LVL752:
	ldp	x19, x20, [sp,16]
	.cfi_restore 20
	.cfi_restore 19
.LVL753:
	ldp	x21, x22, [sp,32]
	.cfi_restore 22
	.cfi_restore 21
.LVL754:
	ldp	x23, x24, [sp,48]
	.cfi_restore 24
	.cfi_restore 23
.LVL755:
	.loc 1 841 0
	mov	w0, 0
	.loc 1 856 0
	ldp	x29, x30, [sp], 96
	.cfi_restore 30
	.cfi_restore 29
	.cfi_def_cfa 31, 0
	ret
.LVL756:
.L521:
	.cfi_restore_state
.LBB3116:
.LBB3102:
.LBB3103:
	.loc 1 807 0
	mov	x1, x3
	mov	x0, x19
	bl	init_request_from_bio
.LVL757:
	.loc 1 808 0
	mov	x0, x19
	mov	w1, 1
	bl	blk_account_io_start
.LVL758:
	b	.L515
.L541:
.LBE3103:
.LBE3102:
.LBE3116:
.LBB3117:
.LBB3112:
	.loc 1 1550 0 discriminator 1
	ldr	w0, [x19,84]
	cmp	w0, 1
	bne	.L516
	.loc 1 1553 0
	mov	x0, x19
	bl	ufs_mq_insert_async_list
.LVL759:
	b	.L518
.LBE3112:
.LBE3117:
	.cfi_endproc
.LFE3172:
	.size	ufs_mq_merge_queue_io, .-ufs_mq_merge_queue_io
	.align	2
	.type	ufs_mq_make_request, %function
ufs_mq_make_request:
.LFB3177:
	.loc 1 970 0
	.cfi_startproc
.LVL760:
	stp	x29, x30, [sp, -144]!
	.cfi_def_cfa_offset 144
	.cfi_offset 29, -144
	.cfi_offset 30, -136
	.loc 1 977 0
	mov	x2, x1
	.loc 1 970 0
	add	x29, sp, 0
	.cfi_def_cfa_register 29
	stp	x21, x22, [sp,32]
	stp	x23, x24, [sp,48]
	stp	x25, x26, [sp,64]
	stp	x19, x20, [sp,16]
	.cfi_offset 21, -112
	.cfi_offset 22, -104
	.cfi_offset 23, -96
	.cfi_offset 24, -88
	.cfi_offset 25, -80
	.cfi_offset 26, -72
	.cfi_offset 19, -128
	.cfi_offset 20, -120
	.loc 1 970 0
	mov	x21, x0
	adrp	x24, __stack_chk_guard
	.loc 1 977 0
	ldr	w0, [x1,20]
.LVL761:
	.loc 1 970 0
	str	x1, [x29,88]
	.loc 1 977 0
	lsr	w1, w0, 29
.LVL762:
	.loc 1 970 0
	ldr	x3, [x24,#:lo12:__stack_chk_guard]
.LBB3234:
.LBB3235:
	.loc 1 795 0
	cmp	w1, 5
.LBE3235:
.LBE3234:
	.loc 1 970 0
	str	x3, [x29,136]
.LBB3272:
.LBB3267:
	.loc 1 795 0
	cset	w25, eq
	cmp	w1, wzr
	cset	w22, eq
.LBE3267:
.LBE3272:
	.loc 1 978 0
	ldr	x19, [x21,13016]
.LVL763:
.LBB3273:
.LBB3268:
	.loc 1 795 0
	orr	w22, w25, w22
	cbz	w22, .L623
.L543:
	.loc 1 797 0
	orr	w0, w0, 8
	str	w0, [x2,20]
.LBB3236:
.LBB3237:
.LBB3238:
.LBB3239:
.LBB3240:
	.loc 2 247 0 discriminator 4
	ldr	w0, [x19,424]
.LBE3240:
.LBE3239:
.LBE3238:
	.loc 1 620 0 discriminator 5
	cbz	w0, .L546
	cmp	w0, 1
	beq	.L547
	.loc 1 637 0
	bl	ktime_get
.LVL764:
.LBE3237:
.LBE3236:
	.loc 1 799 0
	mov	w22, 1
.LBB3263:
.LBB3259:
	.loc 1 637 0
	str	x0, [x19,336]
.L544:
.LBE3259:
.LBE3263:
.LBE3268:
.LBE3273:
	.loc 1 983 0
	ldr	x2, [x21,14944]
	mov	x0, x21
	add	x1, x29, 88
	bl	blk_queue_split
.LVL765:
	.loc 1 988 0
	ldr	x1, [x29,88]
.LVL766:
	mov	x2, 0
	ldr	x0, [x21,80]
	ldr	w1, [x1,20]
.LVL767:
	bl	wbt_wait
.LVL768:
	uxtb	w26, w0
.LVL769:
	.loc 1 990 0
	ldr	x0, [x29,88]
	mov	w1, 3
	bl	hisi_blk_latency_bio_check
.LVL770:
	.loc 1 992 0
	ldr	x1, [x29,88]
	mov	x0, x21
	add	x2, x29, 96
	bl	blk_mq_map_request
.LVL771:
	mov	x20, x0
.LVL772:
	.loc 1 993 0
	cbz	x0, .L624
	.loc 1 999 0
	cbnz	w26, .L625
.L554:
	.loc 1 1002 0
	ldr	x0, [x29,96]
.LBB3274:
.LBB3275:
	.file 20 "/mnt/disk/jenkins/ci/workspace/chipset_pipeline_release/opensource/component_code/vendor/huawei/extra/build/build_script/kirin_kernel_release/kernel/include/linux/blk_types.h"
	.loc 20 386 0
	ldr	w1, [x20,560]
	ldr	x3, [x29,88]
	ldr	w23, [x0,268]
	orr	w23, w1, w23, lsl 16
.LBE3275:
.LBE3274:
	.loc 1 1004 0
	cbnz	w25, .L556
	.loc 1 1004 0 is_stmt 0 discriminator 1
	ldr	w1, [x3,20]
	tbnz	x1, 9, .L556
	.loc 1 1013 0 is_stmt 1
	cbz	w22, .L559
.LBB3276:
.LBB3277:
.LBB3278:
	.loc 1 807 0
	mov	x1, x3
	mov	x0, x20
	bl	init_request_from_bio
.LVL773:
	.loc 1 808 0
	mov	x0, x20
	mov	w1, 1
	bl	blk_account_io_start
.LVL774:
.LBE3278:
.LBE3277:
	.loc 1 1021 0
	str	x20, [x29,112]
	ldr	x1, [x20,88]
	.loc 1 1022 0 discriminator 1
	ldr	x0, [x29,96]
.LBB3279:
.LBB3280:
.LBB3281:
.LBB3282:
	.loc 1 645 0
	tbz	x1, 3, .L560
	.loc 1 646 0
	tbnz	x1, 11, .L626
.LBB3283:
.LBB3284:
	.loc 8 113 0
	add	x3, x19, 12
#APP
// 113 "/mnt/disk/jenkins/ci/workspace/chipset_pipeline_release/opensource/component_code/vendor/huawei/extra/build/build_script/kirin_kernel_release/kernel/arch/arm64/include/asm/atomic_ll_sc.h" 1
	// atomic_add_return
	prfm	pstl1strm, [x3]
1:	ldxr	w2, [x3]
	add	w2, w2, 1
	stlxr	w1, w2, [x3]
	cbnz	w1, 1b
	dmb ish
// 0 "" 2
.LVL775:
#NO_APP
.LBE3284:
.LBE3283:
	.loc 1 655 0
	ldr	w1, [x19,328]
.LVL776:
	cmp	w2, w1
	bgt	.L617
.LVL777:
.L562:
.LBE3282:
.LBE3281:
	.loc 1 735 0
	ldr	x2, [x21,280]
.LVL778:
	add	x1, x29, 112
.LVL779:
	ldr	x2, [x2]
	blr	x2
.LVL780:
	mov	w22, w0
.LVL781:
	.loc 1 737 0
	mov	w1, 6
	mov	x0, x20
	bl	hisi_blk_latency_req_check
.LVL782:
	.loc 1 739 0
	cbnz	w22, .L568
.LVL783:
.L567:
.LBE3280:
.LBE3279:
	.loc 1 1023 0
	ldr	x0, [x29,104]
.LVL784:
.LBB3314:
.LBB3315:
	.loc 6 89 0
	ldr	x1, [x0,304]
.LVL785:
	ldr	x1, [x1,13024]
	cbz	x1, .L572
	.loc 6 89 0 is_stmt 0 discriminator 1
	ldr	x1, [x1,80]
	cbz	x1, .L572
	.loc 6 90 0 is_stmt 1
	blr	x1
.LVL786:
	mov	w2, w0
.LVL787:
	.loc 6 91 0
	cbnz	w0, .L627
.LVL788:
.L574:
.LBE3315:
.LBE3314:
	.loc 1 1024 0
	cbnz	w22, .L628
.LVL789:
.L553:
.LBE3276:
	.loc 1 1053 0
	ldr	x2, [x29,136]
.LVL790:
	mov	w0, w23
.LVL791:
	ldr	x1, [x24,#:lo12:__stack_chk_guard]
.LVL792:
	cmp	x2, x1
	bne	.L629
	ldp	x19, x20, [sp,16]
	.cfi_remember_state
	.cfi_restore 20
	.cfi_restore 19
.LVL793:
	ldp	x21, x22, [sp,32]
	.cfi_restore 22
	.cfi_restore 21
.LVL794:
	ldp	x23, x24, [sp,48]
	.cfi_restore 24
	.cfi_restore 23
	ldp	x25, x26, [sp,64]
	.cfi_restore 26
	.cfi_restore 25
.LVL795:
	ldp	x29, x30, [sp], 144
	.cfi_restore 30
	.cfi_restore 29
	.cfi_def_cfa 31, 0
	ret
.LVL796:
.L547:
	.cfi_restore_state
.LBB3352:
.LBB3269:
.LBB3264:
.LBB3260:
	.loc 1 631 0
	bl	ktime_get
.LVL797:
.LBB3241:
.LBB3242:
.LBB3243:
	.loc 16 233 0
	ldr	x1, [x19,336]
	add	x1, x1, 9998336
	add	x1, x1, 1664
.LBE3243:
.LBE3242:
.LBB3244:
.LBB3245:
.LBB3246:
	.loc 16 144 0
	cmp	x1, x0
	ble	.L551
.LBE3246:
.LBE3245:
.LBE3244:
.LBE3241:
.LBB3247:
.LBB3248:
.LBB3249:
	.loc 2 275 0
	mov	w1, 2
	str	w1, [x19,424]
.L551:
.LBE3249:
.LBE3248:
.LBE3247:
	.loc 1 634 0
	str	x0, [x19,336]
.LBE3260:
.LBE3264:
	.loc 1 799 0
	mov	w22, 1
	b	.L544
.LVL798:
.L627:
.LBE3269:
.LBE3352:
.LBB3353:
.LBB3326:
.LBB3324:
	.loc 6 92 0
	cmn	w0, #1
	bne	.L630
.L572:
	.loc 6 93 0
.LBB3316:
.LBB3317:
.LBB3318:
.LBB3319:
.LBB3320:
	.loc 4 20 0
#APP
// 20 "/mnt/disk/jenkins/ci/workspace/chipset_pipeline_release/opensource/component_code/vendor/huawei/extra/build/build_script/kirin_kernel_release/kernel/arch/arm64/include/asm/current.h" 1
	mrs x1, sp_el0
// 0 "" 2
.LVL799:
#NO_APP
.LBE3320:
.LBE3319:
.LBE3318:
	.loc 5 68 0
	ldr	w0, [x1,24]
.LVL800:
	sub	w0, w0, #1
	str	w0, [x1,24]
	cbnz	w0, .L574
.LBB3321:
.LBB3322:
.LBB3323:
	.loc 7 105 0
	ldr	x0, [x1]
.LBE3323:
.LBE3322:
.LBE3321:
	.loc 5 68 0 discriminator 1
	tbz	x0, 1, .L574
.LBE3317:
.LBE3316:
	.loc 6 93 0 discriminator 3
	bl	preempt_schedule
.LVL801:
	b	.L574
.LVL802:
.L546:
.LBE3324:
.LBE3326:
.LBE3353:
.LBB3354:
.LBB3270:
.LBB3265:
.LBB3261:
	.loc 1 622 0
	bl	ktime_get
.LVL803:
	mov	x20, x0
.LBB3250:
.LBB3251:
.LBB3252:
	.loc 16 233 0
	ldr	x0, [x19,336]
	add	x0, x0, 9998336
	add	x0, x0, 1664
.LBE3252:
.LBE3251:
.LBB3253:
.LBB3254:
.LBB3255:
	.loc 16 144 0
	cmp	x0, x20
	bgt	.L548
.L550:
.LBE3255:
.LBE3254:
.LBE3253:
.LBE3250:
	.loc 1 628 0
	str	x20, [x19,336]
.LBE3261:
.LBE3265:
	.loc 1 799 0
	mov	w22, 1
	b	.L544
.LVL804:
.L556:
.LBE3270:
.LBE3354:
.LBB3355:
.LBB3356:
	.loc 1 807 0
	mov	x1, x3
	mov	x0, x20
	bl	init_request_from_bio
.LVL805:
	.loc 1 808 0
	mov	x0, x20
	mov	w1, 1
	bl	blk_account_io_start
.LVL806:
.LBE3356:
.LBE3355:
	.loc 1 1009 0
	mov	x0, x20
	bl	blk_insert_flush
.LVL807:
.L558:
	.loc 1 1045 0
	ldr	x0, [x29,96]
	eor	w1, w22, 1
	bl	blk_mq_run_hw_queue
.LVL808:
.L581:
	.loc 1 1047 0
	ldr	x0, [x29,104]
.LBB3357:
.LBB3358:
	.loc 6 89 0
	ldr	x1, [x0,304]
	ldr	x1, [x1,13024]
	cbz	x1, .L584
	.loc 6 89 0 is_stmt 0 discriminator 1
	ldr	x1, [x1,80]
	cbz	x1, .L584
	.loc 6 90 0 is_stmt 1
	blr	x1
.LVL809:
	mov	w2, w0
.LVL810:
	.loc 6 91 0
	cbz	w0, .L553
	.loc 6 92 0
	cmn	w0, #1
	bne	.L631
.L584:
	.loc 6 93 0
.LBB3359:
.LBB3360:
.LBB3361:
.LBB3362:
.LBB3363:
	.loc 4 20 0
#APP
// 20 "/mnt/disk/jenkins/ci/workspace/chipset_pipeline_release/opensource/component_code/vendor/huawei/extra/build/build_script/kirin_kernel_release/kernel/arch/arm64/include/asm/current.h" 1
	mrs x1, sp_el0
// 0 "" 2
.LVL811:
#NO_APP
.LBE3363:
.LBE3362:
.LBE3361:
	.loc 5 68 0
	ldr	w0, [x1,24]
	sub	w0, w0, #1
	str	w0, [x1,24]
	cbnz	w0, .L553
.LBB3364:
.LBB3365:
.LBB3366:
	.loc 7 105 0
	ldr	x0, [x1]
.LBE3366:
.LBE3365:
.LBE3364:
	.loc 5 68 0 discriminator 1
	tbz	x0, 1, .L553
.LBE3360:
.LBE3359:
	.loc 6 93 0 discriminator 3
	bl	preempt_schedule
.LVL812:
	b	.L553
.LVL813:
.L624:
.LBE3358:
.LBE3357:
	.loc 1 996 0
	mov	w23, -1
	.loc 1 994 0
	cbz	w26, .L553
	.loc 1 995 0
	ldr	x0, [x21,80]
.LVL814:
	bl	__wbt_done
.LVL815:
	b	.L553
.LVL816:
.L623:
.LBB3368:
.LBB3271:
	.loc 1 795 0 discriminator 1
	mov	w1, 280
.LVL817:
	tst	w0, w1
	bne	.L543
	b	.L544
.L548:
.LBB3266:
.LBB3262:
	.loc 1 626 0
	adrp	x1, jiffies
.LBB3256:
.LBB3257:
.LBB3258:
	.loc 2 275 0
	mov	w0, 1
	str	w0, [x19,424]
.LBE3258:
.LBE3257:
.LBE3256:
	.loc 1 626 0 discriminator 1
	add	x0, x19, 376
	.loc 1 624 0
	str	x20, [x19,344]
	.loc 1 626 0
	ldr	x1, [x1,#:lo12:jiffies]
	.loc 1 626 0 is_stmt 0 discriminator 1
	add	x1, x1, 3
	bl	mod_timer
.LVL818:
	b	.L550
.LVL819:
.L625:
.LBE3262:
.LBE3266:
.LBE3271:
.LBE3368:
.LBB3369:
.LBB3370:
	.file 21 "/mnt/disk/jenkins/ci/workspace/chipset_pipeline_release/opensource/component_code/vendor/huawei/extra/build/build_script/kirin_kernel_release/kernel/include/linux/wbt.h"
	.loc 21 29 0 is_stmt 1
	ldr	x0, [x0,512]
.LVL820:
	orr	x0, x0, -9223372036854775808
	str	x0, [x20,512]
	b	.L554
.L559:
.LBE3370:
.LBE3369:
	.loc 1 1043 0
	ldr	x1, [x29,104]
	mov	x2, x20
	bl	ufs_mq_merge_queue_io
.LVL821:
	uxtb	w0, w0
	cbnz	w0, .L581
	b	.L558
.LVL822:
.L628:
.LBB3371:
	.loc 1 1026 0
	cmp	w22, 2
	beq	.L632
	.loc 1 1031 0
	ldr	x0, [x29,112]
	bl	__blk_mq_requeue_request
.LVL823:
	.loc 1 1036 0
	ldr	x20, [x29,112]
.LVL824:
.LBB3327:
.LBB3328:
	.loc 1 785 0
	ldr	x19, [x21,13016]
.LVL825:
	.loc 1 786 0
	mov	w1, 4
	mov	x0, x20
.LBB3329:
.LBB3330:
	.loc 9 291 0
	add	x22, x19, 280
.LVL826:
.LBE3330:
.LBE3329:
	.loc 1 786 0
	bl	hisi_blk_latency_req_check
.LVL827:
	.loc 1 787 0 discriminator 1
	mov	x0, x22
	bl	_raw_spin_lock_irqsave
.LVL828:
	mov	x1, x0
.LVL829:
	.loc 1 788 0
	ldr	x2, [x20,88]
	.loc 1 788 0 is_stmt 0 discriminator 1
	add	x3, x19, 232
	add	x19, x19, 248
.LVL830:
.LBB3331:
.LBB3332:
	.loc 9 362 0 is_stmt 1
	mov	x0, x22
.LBE3332:
.LBE3331:
	.loc 1 788 0
	and	x2, x2, 2048
	.loc 1 788 0 is_stmt 0 discriminator 1
	cmp	x2, xzr
	csel	x19, x19, x3, eq
.LBB3334:
.LBB3335:
	.loc 3 92 0 is_stmt 1
	ldr	x2, [x19,8]
.LBB3336:
.LBB3337:
	.loc 3 62 0
	str	x20, [x19,8]
	.loc 3 64 0
	str	x2, [x20,8]
	.loc 3 63 0
	str	x19, [x20]
.LBB3338:
.LBB3339:
.LBB3340:
	.loc 2 276 0
	str	x20, [x2]
.LBE3340:
.LBE3339:
.LBE3338:
.LBE3337:
.LBE3336:
.LBE3335:
.LBE3334:
.LBB3341:
.LBB3333:
	.loc 9 362 0
	bl	_raw_spin_unlock_irqrestore
.LVL831:
.LBE3333:
.LBE3341:
.LBB3342:
.LBB3343:
.LBB3344:
.LBB3345:
.LBB3346:
	.loc 10 492 0
	adrp	x1, .LANCHOR0
.LBE3346:
.LBE3345:
	.loc 1 764 0
	ldr	x2, [x21,13016]
.LBB3348:
.LBB3347:
	.loc 10 492 0
	mov	x3, 0
	mov	w0, 8
	add	x2, x2, 24
	ldr	x1, [x1,#:lo12:.LANCHOR0]
	bl	queue_delayed_work_on
.LVL832:
	b	.L553
.LVL833:
.L560:
.LBE3347:
.LBE3348:
.LBE3344:
.LBE3343:
.LBE3342:
.LBE3328:
.LBE3327:
.LBB3349:
.LBB3312:
.LBB3291:
.LBB3289:
.LBB3285:
.LBB3286:
	.loc 8 113 0
	add	x3, x19, 16
#APP
// 113 "/mnt/disk/jenkins/ci/workspace/chipset_pipeline_release/opensource/component_code/vendor/huawei/extra/build/build_script/kirin_kernel_release/kernel/arch/arm64/include/asm/atomic_ll_sc.h" 1
	// atomic_add_return
	prfm	pstl1strm, [x3]
1:	ldxr	w2, [x3]
	add	w2, w2, 1
	stlxr	w1, w2, [x3]
	cbnz	w1, 1b
	dmb ish
// 0 "" 2
.LVL834:
#NO_APP
.LBE3286:
.LBE3285:
	.loc 1 670 0
	ldr	w1, [x19,332]
.LVL835:
	cmp	w2, w1
	ble	.L562
.LVL836:
.L617:
	.loc 1 675 0
	mov	w0, 2
	mov	w22, 1
.LVL837:
	str	w0, [x20,276]
.L564:
	ldr	x0, [x20,88]
.LBE3289:
.LBE3291:
.LBB3292:
.LBB3293:
	.loc 1 697 0
	tbz	x0, 3, .L565
	.loc 1 698 0
	tbnz	x0, 11, .L633
.LBB3294:
.LBB3295:
	.loc 8 114 0
	add	x2, x19, 12
.LVL838:
#APP
// 114 "/mnt/disk/jenkins/ci/workspace/chipset_pipeline_release/opensource/component_code/vendor/huawei/extra/build/build_script/kirin_kernel_release/kernel/arch/arm64/include/asm/atomic_ll_sc.h" 1
	// atomic_sub
	prfm	pstl1strm, [x2]
1:	ldxr	w0, [x2]
	sub	w0, w0, 1
	stxr	w1, w0, [x2]
	cbnz	w1, 1b
// 0 "" 2
.LVL839:
#NO_APP
	b	.L567
.LVL840:
.L568:
.LBE3295:
.LBE3294:
.LBE3293:
.LBE3292:
	.loc 1 742 0
	mov	w0, 1
	str	w0, [x20,276]
.LBB3301:
.LBB3302:
.LBB3303:
	.loc 2 247 0 discriminator 4
	ldr	w2, [x19,8]
.LBE3303:
.LBE3302:
.LBE3301:
.LBB3304:
.LBB3305:
.LBB3306:
	ldr	w0, [x19,12]
.LBE3306:
.LBE3305:
.LBE3304:
.LBB3307:
.LBB3308:
.LBB3309:
	ldr	w1, [x19,16]
.LBE3309:
.LBE3308:
.LBE3307:
	.loc 1 744 0 discriminator 11
	add	w0, w2, w0
	.loc 1 744 0 is_stmt 0 discriminator 17
	add	w0, w0, w1
	cmp	w0, 8
	bgt	.L564
	.loc 1 745 0 is_stmt 1
	mov	w0, 3
	str	w0, [x20,276]
	b	.L564
.LVL841:
.L626:
.LBB3310:
.LBB3290:
.LBB3287:
.LBB3288:
	.loc 8 113 0
	add	x3, x19, 8
#APP
// 113 "/mnt/disk/jenkins/ci/workspace/chipset_pipeline_release/opensource/component_code/vendor/huawei/extra/build/build_script/kirin_kernel_release/kernel/arch/arm64/include/asm/atomic_ll_sc.h" 1
	// atomic_add
	prfm	pstl1strm, [x3]
1:	ldxr	w1, [x3]
	add	w1, w1, 1
	stxr	w2, w1, [x3]
	cbnz	w2, 1b
// 0 "" 2
.LVL842:
#NO_APP
	b	.L562
.LVL843:
.L630:
.LBE3288:
.LBE3287:
.LBE3290:
.LBE3310:
.LBE3312:
.LBE3349:
.LBB3350:
.LBB3325:
	.loc 6 95 0
	adrp	x0, .LC8
.LVL844:
	adrp	x1, .LANCHOR1
	add	x1, x1, :lo12:.LANCHOR1
	add	x0, x0, :lo12:.LC8
	bl	printk
.LVL845:
	b	.L574
.LVL846:
.L632:
.LBE3325:
.LBE3350:
	.loc 1 1027 0
	ldr	x2, [x29,112]
.LVL847:
	mov	w3, -5
	.loc 1 1028 0
	mov	w1, w3
.LVL848:
	mov	x0, x2
.LVL849:
	.loc 1 1027 0
	str	w3, [x2,564]
	.loc 1 1028 0
	bl	blk_mq_end_request
.LVL850:
	.loc 1 1029 0
	b	.L553
.LVL851:
.L631:
.LBE3371:
.LBB3372:
.LBB3367:
	.loc 6 95 0
	adrp	x0, .LC8
.LVL852:
	adrp	x1, .LANCHOR1
	add	x1, x1, :lo12:.LANCHOR1
	add	x0, x0, :lo12:.LC8
	bl	printk
.LVL853:
	b	.L553
.LVL854:
.L565:
.LBE3367:
.LBE3372:
.LBB3373:
.LBB3351:
.LBB3313:
.LBB3311:
.LBB3300:
.LBB3296:
.LBB3297:
	.loc 8 114 0
	add	x2, x19, 16
.LVL855:
#APP
// 114 "/mnt/disk/jenkins/ci/workspace/chipset_pipeline_release/opensource/component_code/vendor/huawei/extra/build/build_script/kirin_kernel_release/kernel/arch/arm64/include/asm/atomic_ll_sc.h" 1
	// atomic_sub
	prfm	pstl1strm, [x2]
1:	ldxr	w0, [x2]
	sub	w0, w0, 1
	stxr	w1, w0, [x2]
	cbnz	w1, 1b
// 0 "" 2
.LVL856:
#NO_APP
	b	.L567
.LVL857:
.L633:
.LBE3297:
.LBE3296:
.LBB3298:
.LBB3299:
	add	x2, x19, 8
.LVL858:
#APP
// 114 "/mnt/disk/jenkins/ci/workspace/chipset_pipeline_release/opensource/component_code/vendor/huawei/extra/build/build_script/kirin_kernel_release/kernel/arch/arm64/include/asm/atomic_ll_sc.h" 1
	// atomic_sub
	prfm	pstl1strm, [x2]
1:	ldxr	w0, [x2]
	sub	w0, w0, 1
	stxr	w1, w0, [x2]
	cbnz	w1, 1b
// 0 "" 2
.LVL859:
#NO_APP
	b	.L567
.LVL860:
.L629:
.LBE3299:
.LBE3298:
.LBE3300:
.LBE3311:
.LBE3313:
.LBE3351:
.LBE3373:
	.loc 1 1053 0
	bl	__stack_chk_fail
.LVL861:
	.cfi_endproc
.LFE3177:
	.size	ufs_mq_make_request, .-ufs_mq_make_request
	.align	2
	.global	ufs_mq_flush_plug_list
	.type	ufs_mq_flush_plug_list, %function
ufs_mq_flush_plug_list:
.LFB3174:
	.loc 1 898 0
	.cfi_startproc
.LVL862:
	stp	x29, x30, [sp, -160]!
	.cfi_def_cfa_offset 160
	.cfi_offset 29, -160
	.cfi_offset 30, -152
	.loc 1 910 0
	add	x1, x0, 48
.LVL863:
	.loc 1 903 0
	mov	w3, 1
	.loc 1 898 0
	add	x29, sp, 0
	.cfi_def_cfa_register 29
	stp	x27, x28, [sp,80]
	.cfi_offset 27, -80
	.cfi_offset 28, -72
	adrp	x28, __stack_chk_guard
	stp	x23, x24, [sp,48]
	stp	x19, x20, [sp,16]
	ldr	x2, [x28,#:lo12:__stack_chk_guard]
	.cfi_offset 23, -112
	.cfi_offset 24, -104
	.cfi_offset 19, -144
	.cfi_offset 20, -136
	.loc 1 908 0
	add	x23, x29, 112
	.loc 1 898 0
	stp	x21, x22, [sp,32]
	stp	x25, x26, [sp,64]
	.cfi_offset 21, -128
	.cfi_offset 22, -120
	.cfi_offset 25, -96
	.cfi_offset 26, -88
	.loc 1 898 0
	str	x2, [x29,152]
	.loc 1 903 0
	str	xzr, [x29,128]
.LBB3374:
.LBB3375:
.LBB3376:
.LBB3377:
.LBB3378:
.LBB3379:
	.loc 2 247 0 discriminator 5
	ldr	x2, [x0,48]
.LBE3379:
.LBE3378:
.LBE3377:
.LBE3376:
.LBE3375:
.LBE3374:
	.loc 1 903 0
	str	xzr, [x29,136]
	strb	w3, [x29,144]
.LBB3390:
.LBB3387:
	.loc 3 335 0
	cmp	x1, x2
.LBE3387:
.LBE3390:
	.loc 1 908 0
	str	x23, [x29,112]
	str	x23, [x29,120]
.LBB3391:
.LBB3388:
	.loc 3 335 0
	beq	.L658
.LBB3380:
.LBB3381:
	.loc 3 291 0
	ldr	x3, [x0,48]
.LVL864:
	.loc 3 292 0
	ldr	x2, [x0,56]
.LVL865:
	.loc 3 295 0
	str	x3, [x29,112]
	.loc 3 294 0
	str	x23, [x3,8]
	.loc 3 297 0
	str	x23, [x2]
	.loc 3 298 0
	str	x2, [x29,120]
	ldr	x19, [x29,112]
.LBE3381:
.LBE3380:
.LBB3382:
.LBB3383:
.LBB3384:
.LBB3385:
.LBB3386:
	.loc 2 276 0
	str	x1, [x0,48]
.LBE3386:
.LBE3385:
.LBE3384:
	.loc 3 28 0
	str	x1, [x0,56]
	ldr	x0, [x19,8]
.LVL866:
	ldr	x21, [x19]
.L635:
.LBE3383:
.LBE3382:
.LBE3388:
.LBE3391:
.LBB3392:
.LBB3393:
.LBB3394:
	.loc 6 95 0
	adrp	x27, .LC8
	adrp	x26, .LANCHOR1
	add	x1, x26, :lo12:.LANCHOR1
	adrp	x25, __per_cpu_offset
	add	x27, x27, :lo12:.LC8
	str	x1, [x29,104]
.LBE3394:
.LBE3393:
.LBB3406:
.LBB3407:
.LBB3408:
.LBB3409:
	.loc 6 82 0
	adrp	x24, cpu_number
	add	x24, x24, :lo12:cpu_number
.LVL867:
.LBE3409:
.LBB3412:
.LBB3413:
.LBB3414:
.LBB3415:
.LBB3416:
	.loc 4 20 0
#APP
// 20 "/mnt/disk/jenkins/ci/workspace/chipset_pipeline_release/opensource/component_code/vendor/huawei/extra/build/build_script/kirin_kernel_release/kernel/arch/arm64/include/asm/current.h" 1
	mrs x22, sp_el0
// 0 "" 2
.LVL868:
#NO_APP
.LBE3416:
.LBE3415:
.LBE3414:
.LBE3413:
.LBE3412:
.LBB3418:
	.loc 6 82 0
.LVL869:
.L656:
.LBE3418:
.LBE3408:
.LBE3407:
.LBE3406:
	.loc 1 914 0
	ldr	x26, [x19,64]
	.loc 1 915 0
	ldr	x20, [x26,13016]
.LBB3425:
.LBB3426:
.LBB3427:
.LBB3428:
	.loc 3 104 0
	str	x0, [x21,8]
.LBB3429:
.LBB3430:
.LBB3431:
	.loc 2 276 0
	str	x21, [x0]
.LBE3431:
.LBE3430:
.LBE3429:
.LBE3428:
.LBE3427:
.LBE3426:
.LBB3432:
.LBB3433:
.LBB3434:
.LBB3435:
.LBB3436:
	str	x19, [x19]
.LBE3436:
.LBE3435:
.LBE3434:
	.loc 3 28 0
	str	x19, [x19,8]
.LBE3433:
.LBE3432:
.LBE3425:
	.loc 1 917 0
	str	x19, [x29,128]
.LBB3437:
.LBB3424:
.LBB3421:
.LBB3419:
.LBB3417:
	.loc 5 53 0
	ldr	w0, [x22,24]
	add	w0, w0, 1
	str	w0, [x22,24]
.LBE3417:
.LBE3419:
	.loc 6 82 0
.LBB3420:
.LBB3410:
.LBB3411:
	.loc 13 34 0
#APP
// 34 "/mnt/disk/jenkins/ci/workspace/chipset_pipeline_release/opensource/component_code/vendor/huawei/extra/build/build_script/kirin_kernel_release/kernel/arch/arm64/include/asm/percpu.h" 1
	mrs x0, tpidr_el1
// 0 "" 2
.LVL870:
#NO_APP
.LBE3411:
.LBE3410:
.LBE3420:
.LBE3421:
.LBB3422:
.LBB3423:
	.loc 6 71 0
	ldr	w1, [x0,x24]
.LVL871:
	add	x0, x25, :lo12:__per_cpu_offset
.LVL872:
	ldr	x2, [x19,88]
.LVL873:
	ldr	x1, [x0,x1,lsl 3]
	ldr	x0, [x26,296]
.LVL874:
	add	x0, x0, x1
.LVL875:
.LBE3423:
.LBE3422:
.LBE3424:
.LBE3437:
	.loc 1 918 0
	str	x0, [x19,72]
.LBB3438:
.LBB3439:
	.loc 6 53 0
	ldr	x1, [x26,288]
.LBE3439:
.LBE3438:
	.loc 1 919 0
	ldr	w4, [x0,64]
.LBB3441:
.LBB3440:
	.loc 6 53 0
	ldr	x0, [x26,312]
	ldr	w1, [x1,w4,sxtw 2]
	ldr	x0, [x0,w1,uxtw 3]
.LBE3440:
.LBE3441:
.LBB3442:
.LBB3443:
.LBB3444:
.LBB3445:
	.loc 1 645 0
	tbz	x2, 3, .L636
	.loc 1 646 0
	tbnz	x2, 11, .L677
.LBB3446:
.LBB3447:
	.loc 8 113 0
	add	x3, x20, 12
.LVL876:
#APP
// 113 "/mnt/disk/jenkins/ci/workspace/chipset_pipeline_release/opensource/component_code/vendor/huawei/extra/build/build_script/kirin_kernel_release/kernel/arch/arm64/include/asm/atomic_ll_sc.h" 1
	// atomic_add_return
	prfm	pstl1strm, [x3]
1:	ldxr	w2, [x3]
	add	w2, w2, 1
	stlxr	w1, w2, [x3]
	cbnz	w1, 1b
	dmb ish
// 0 "" 2
.LVL877:
#NO_APP
.LBE3447:
.LBE3446:
	.loc 1 655 0
	ldr	w1, [x20,328]
.LVL878:
	cmp	w2, w1
	bgt	.L673
.LVL879:
.L638:
.LBE3445:
.LBE3444:
	.loc 1 735 0
	ldr	x2, [x26,280]
.LVL880:
	add	x1, x29, 128
.LVL881:
	ldr	x2, [x2]
	blr	x2
.LVL882:
	mov	w21, w0
.LVL883:
	.loc 1 737 0
	mov	w1, 6
	mov	x0, x19
	bl	hisi_blk_latency_req_check
.LVL884:
	.loc 1 739 0
	cbnz	w21, .L678
.LVL885:
.L643:
.LBE3443:
.LBE3442:
	.loc 1 921 0
	ldr	x0, [x19,72]
.LVL886:
.LBB3479:
.LBB3403:
	.loc 6 89 0
	ldr	x1, [x0,304]
.LVL887:
	ldr	x1, [x1,13024]
	cbz	x1, .L648
	.loc 6 89 0 is_stmt 0 discriminator 1
	ldr	x1, [x1,80]
	cbz	x1, .L648
	.loc 6 90 0 is_stmt 1
	blr	x1
.LVL888:
	mov	w2, w0
.LVL889:
	.loc 6 91 0
	cbz	w0, .L650
	.loc 6 92 0
	cmn	w0, #1
	bne	.L679
.L648:
	.loc 6 93 0
.LBB3395:
.LBB3396:
.LBB3397:
.LBB3398:
.LBB3399:
	.loc 4 20 0
#APP
// 20 "/mnt/disk/jenkins/ci/workspace/chipset_pipeline_release/opensource/component_code/vendor/huawei/extra/build/build_script/kirin_kernel_release/kernel/arch/arm64/include/asm/current.h" 1
	mrs x1, sp_el0
// 0 "" 2
.LVL890:
#NO_APP
.LBE3399:
.LBE3398:
.LBE3397:
	.loc 5 68 0
	ldr	w0, [x1,24]
	sub	w0, w0, #1
	str	w0, [x1,24]
	cbnz	w0, .L650
.LBB3400:
.LBB3401:
.LBB3402:
	.loc 7 105 0
	ldr	x0, [x1]
.LBE3402:
.LBE3401:
.LBE3400:
	.loc 5 68 0 discriminator 1
	tbnz	x0, 1, .L680
.L650:
.LBE3396:
.LBE3395:
.LBE3403:
.LBE3479:
	.loc 1 922 0
	cbnz	w21, .L681
.L653:
.LBE3392:
.LBB3490:
.LBB3491:
.LBB3492:
.LBB3493:
	.loc 2 247 0 discriminator 5
	ldr	x0, [x29,112]
.LBE3493:
.LBE3492:
.LBE3491:
.LBE3490:
	.loc 1 932 0
	cmp	x23, x0
	beq	.L634
.L683:
	ldr	x19, [x29,112]
	ldr	x21, [x19]
.LVL891:
	ldr	x0, [x19,8]
	b	.L656
.LVL892:
.L680:
.LBB3497:
.LBB3480:
.LBB3404:
	.loc 6 93 0 discriminator 3
	bl	preempt_schedule
.LVL893:
.LBE3404:
.LBE3480:
	.loc 1 922 0
	cbz	w21, .L653
.LVL894:
.L681:
	.loc 1 923 0
	cmp	w21, 2
	beq	.L682
	.loc 1 927 0
	mov	x0, x19
	bl	__blk_mq_requeue_request
.LVL895:
	.loc 1 928 0
	ldr	x1, [x26,13016]
	mov	x0, x19
	bl	ufs_mq_insert_sync_list.isra.25
.LVL896:
.LBB3481:
.LBB3482:
.LBB3483:
.LBB3484:
	.loc 10 492 0
	adrp	x1, .LANCHOR0
.LBE3484:
.LBE3483:
	.loc 1 764 0
	ldr	x2, [x26,13016]
.LBB3486:
.LBB3485:
	.loc 10 492 0
	mov	w0, 8
	mov	x3, 0
	add	x2, x2, 24
	ldr	x1, [x1,#:lo12:.LANCHOR0]
	bl	queue_delayed_work_on
.LVL897:
.LBE3485:
.LBE3486:
.LBE3482:
.LBE3481:
.LBE3497:
.LBB3498:
.LBB3496:
.LBB3495:
.LBB3494:
	.loc 2 247 0 discriminator 5
	ldr	x0, [x29,112]
.LBE3494:
.LBE3495:
.LBE3496:
.LBE3498:
	.loc 1 932 0
	cmp	x23, x0
	bne	.L683
.LVL898:
.L634:
	.loc 1 933 0
	ldr	x1, [x29,152]
.LVL899:
	ldr	x0, [x28,#:lo12:__stack_chk_guard]
	cmp	x1, x0
	bne	.L684
	ldp	x19, x20, [sp,16]
	.cfi_remember_state
	.cfi_restore 20
	.cfi_restore 19
.LVL900:
	ldp	x21, x22, [sp,32]
	.cfi_restore 22
	.cfi_restore 21
.LVL901:
	ldp	x23, x24, [sp,48]
	.cfi_restore 24
	.cfi_restore 23
.LVL902:
	ldp	x25, x26, [sp,64]
	.cfi_restore 26
	.cfi_restore 25
.LVL903:
	ldp	x27, x28, [sp,80]
	.cfi_restore 28
	.cfi_restore 27
	ldp	x29, x30, [sp], 160
	.cfi_restore 30
	.cfi_restore 29
	.cfi_def_cfa 31, 0
	ret
.LVL904:
.L636:
	.cfi_restore_state
.LBB3499:
.LBB3487:
.LBB3477:
.LBB3454:
.LBB3452:
.LBB3448:
.LBB3449:
	.loc 8 113 0
	add	x3, x20, 16
.LVL905:
#APP
// 113 "/mnt/disk/jenkins/ci/workspace/chipset_pipeline_release/opensource/component_code/vendor/huawei/extra/build/build_script/kirin_kernel_release/kernel/arch/arm64/include/asm/atomic_ll_sc.h" 1
	// atomic_add_return
	prfm	pstl1strm, [x3]
1:	ldxr	w2, [x3]
	add	w2, w2, 1
	stlxr	w1, w2, [x3]
	cbnz	w1, 1b
	dmb ish
// 0 "" 2
.LVL906:
#NO_APP
.LBE3449:
.LBE3448:
	.loc 1 670 0
	ldr	w1, [x20,332]
.LVL907:
	cmp	w2, w1
	ble	.L638
.LVL908:
.L673:
	.loc 1 675 0
	mov	w0, 2
	mov	w21, 1
.LVL909:
	str	w0, [x19,276]
.L640:
	ldr	x0, [x19,88]
.LBE3452:
.LBE3454:
.LBB3455:
.LBB3456:
	.loc 1 697 0
	tbz	x0, 3, .L641
.L686:
	.loc 1 698 0
	tbnz	x0, 11, .L685
.LBB3457:
.LBB3458:
	.loc 8 114 0
	add	x2, x20, 12
.LVL910:
#APP
// 114 "/mnt/disk/jenkins/ci/workspace/chipset_pipeline_release/opensource/component_code/vendor/huawei/extra/build/build_script/kirin_kernel_release/kernel/arch/arm64/include/asm/atomic_ll_sc.h" 1
	// atomic_sub
	prfm	pstl1strm, [x2]
1:	ldxr	w0, [x2]
	sub	w0, w0, 1
	stxr	w1, w0, [x2]
	cbnz	w1, 1b
// 0 "" 2
.LVL911:
#NO_APP
	b	.L643
.LVL912:
.L678:
.LBE3458:
.LBE3457:
.LBE3456:
.LBE3455:
	.loc 1 742 0
	mov	w0, 1
	str	w0, [x19,276]
.LBB3465:
.LBB3466:
.LBB3467:
	.loc 2 247 0 discriminator 4
	ldr	w2, [x20,8]
.LBE3467:
.LBE3466:
.LBE3465:
.LBB3468:
.LBB3469:
.LBB3470:
	ldr	w0, [x20,12]
.LBE3470:
.LBE3469:
.LBE3468:
.LBB3471:
.LBB3472:
.LBB3473:
	ldr	w1, [x20,16]
.LBE3473:
.LBE3472:
.LBE3471:
	.loc 1 744 0 discriminator 11
	add	w0, w2, w0
	.loc 1 744 0 is_stmt 0 discriminator 17
	add	w0, w0, w1
	cmp	w0, 8
	bgt	.L640
	.loc 1 745 0 is_stmt 1
	mov	w0, 3
	str	w0, [x19,276]
	ldr	x0, [x19,88]
.LBB3474:
.LBB3463:
	.loc 1 697 0
	tbnz	x0, 3, .L686
.LVL913:
.L641:
.LBB3459:
.LBB3460:
	.loc 8 114 0
	add	x2, x20, 16
.LVL914:
#APP
// 114 "/mnt/disk/jenkins/ci/workspace/chipset_pipeline_release/opensource/component_code/vendor/huawei/extra/build/build_script/kirin_kernel_release/kernel/arch/arm64/include/asm/atomic_ll_sc.h" 1
	// atomic_sub
	prfm	pstl1strm, [x2]
1:	ldxr	w0, [x2]
	sub	w0, w0, 1
	stxr	w1, w0, [x2]
	cbnz	w1, 1b
// 0 "" 2
.LVL915:
#NO_APP
	b	.L643
.LVL916:
.L677:
.LBE3460:
.LBE3459:
.LBE3463:
.LBE3474:
.LBB3475:
.LBB3453:
.LBB3450:
.LBB3451:
	.loc 8 113 0
	add	x3, x20, 8
.LVL917:
#APP
// 113 "/mnt/disk/jenkins/ci/workspace/chipset_pipeline_release/opensource/component_code/vendor/huawei/extra/build/build_script/kirin_kernel_release/kernel/arch/arm64/include/asm/atomic_ll_sc.h" 1
	// atomic_add
	prfm	pstl1strm, [x3]
1:	ldxr	w1, [x3]
	add	w1, w1, 1
	stxr	w2, w1, [x3]
	cbnz	w2, 1b
// 0 "" 2
.LVL918:
#NO_APP
	b	.L638
.LVL919:
.L679:
.LBE3451:
.LBE3450:
.LBE3453:
.LBE3475:
.LBE3477:
.LBE3487:
.LBB3488:
.LBB3405:
	.loc 6 95 0
	ldr	x1, [x29,104]
	mov	x0, x27
.LVL920:
	bl	printk
.LVL921:
	b	.L650
.LVL922:
.L685:
.LBE3405:
.LBE3488:
.LBB3489:
.LBB3478:
.LBB3476:
.LBB3464:
.LBB3461:
.LBB3462:
	.loc 8 114 0
	add	x2, x20, 8
.LVL923:
#APP
// 114 "/mnt/disk/jenkins/ci/workspace/chipset_pipeline_release/opensource/component_code/vendor/huawei/extra/build/build_script/kirin_kernel_release/kernel/arch/arm64/include/asm/atomic_ll_sc.h" 1
	// atomic_sub
	prfm	pstl1strm, [x2]
1:	ldxr	w0, [x2]
	sub	w0, w0, 1
	stxr	w1, w0, [x2]
	cbnz	w1, 1b
// 0 "" 2
.LVL924:
#NO_APP
	b	.L643
.LVL925:
.L658:
.LBE3462:
.LBE3461:
.LBE3464:
.LBE3476:
.LBE3478:
.LBE3489:
.LBE3499:
.LBB3500:
.LBB3389:
	.loc 3 335 0
	mov	x21, x23
	mov	x0, x23
.LVL926:
	mov	x19, x23
	b	.L635
.LVL927:
.L682:
.LBE3389:
.LBE3500:
.LBB3501:
	.loc 1 924 0
	mov	w1, -5
.LVL928:
	.loc 1 925 0
	mov	x0, x19
	.loc 1 924 0
	str	w1, [x19,564]
	.loc 1 925 0
	bl	blk_mq_end_request
.LVL929:
	b	.L653
.LVL930:
.L684:
.LBE3501:
	.loc 1 933 0
	bl	__stack_chk_fail
.LVL931:
	.cfi_endproc
.LFE3174:
	.size	ufs_mq_flush_plug_list, .-ufs_mq_flush_plug_list
	.global	hisi_ufs_blk_tagset_ops
	.global	hisi_ufs_blk_queue_ops
	.global	hisi_ufs_mq
	.global	hisi_mq_sync_long_burst_duration_ms
	.section	.rodata
	.align	3
.LANCHOR1 = . + 0
	.type	__func__.38740, %object
	.size	__func__.38740, 15
__func__.38740:
	.string	"blk_mq_put_ctx"
	.zero	1
	.type	__func__.39229, %object
	.size	__func__.39229, 28
__func__.39229:
	.string	"ufs_tagset_init_bitmap_tags"
	.section	__ksymtab_strings,"a",%progbits
	.type	__kstrtab_blk_mq_tagset_ufs_mq_iosched_enable, %object
	.size	__kstrtab_blk_mq_tagset_ufs_mq_iosched_enable, 36
__kstrtab_blk_mq_tagset_ufs_mq_iosched_enable:
	.string	"blk_mq_tagset_ufs_mq_iosched_enable"
	.data
	.align	3
.LANCHOR2 = . + 0
	.type	hisi_io_guard_request_queue_list_lock, %object
	.size	hisi_io_guard_request_queue_list_lock, 24
hisi_io_guard_request_queue_list_lock:
	.hword	0
	.hword	0
	.word	-559067475
	.word	-1
	.zero	4
	.xword	-1
	.type	hisi_mq_sync_long_burst_duration_ms, %object
	.size	hisi_mq_sync_long_burst_duration_ms, 4
hisi_mq_sync_long_burst_duration_ms:
	.word	5000
	.zero	4
	.type	hisi_io_guard_request_queue_list, %object
	.size	hisi_io_guard_request_queue_list, 16
hisi_io_guard_request_queue_list:
	.xword	hisi_io_guard_request_queue_list
	.xword	hisi_io_guard_request_queue_list
	.type	hisi_ufs_blk_tagset_ops, %object
	.size	hisi_ufs_blk_tagset_ops, 32
hisi_ufs_blk_tagset_ops:
	.xword	ufs_tagset_init_tags
	.xword	ufs_tagset_free_tags
	.xword	ufs_tagset_all_tag_busy_iter
	.xword	hisi_ufs_blk_queue_ops
	.type	hisi_ufs_blk_queue_ops, %object
	.size	hisi_ufs_blk_queue_ops, 216
hisi_ufs_blk_queue_ops:
	.word	1
	.zero	4
	.xword	ufs_mq_iosched_init
	.xword	ufs_mq_iosched_deinit
	.xword	ufs_mq_req_alloc_prep
	.xword	ufs_mq_req_init
	.xword	ufs_mq_req_complete
	.xword	ufs_mq_req_deinit
	.xword	ufs_mq_req_insert
	.xword	ufs_mq_req_requeue
	.xword	ufs_mq_req_timeout_handler
	.xword	ufs_mq_ctx_put
	.xword	ufs_mq_hctx_get_by_req
	.xword	ufs_mq_hctx_free_in_ctx_map
	.xword	ufs_mq_tag_get
	.xword	ufs_mq_tag_put
	.xword	ufs_mq_tag_update_depth
	.xword	ufs_mq_tag_busy_iter
	.xword	ufs_mq_tag_wakeup_all
	.xword	ufs_mq_tag_sysfs_show
	.xword	ufs_mq_exec_queue
	.xword	ufs_mq_run_hw_queue
	.xword	ufs_mq_run_delay_queue
	.xword	ufs_mq_run_requeue
	.xword	ufs_mq_poll_enable
	.xword	ufs_mq_status_dump
	.xword	ufs_mq_dump_request
	.xword	hisi_ufs_mq
	.type	hisi_ufs_mq, %object
	.size	hisi_ufs_mq, 8
hisi_ufs_mq:
	.xword	hisi_ufs_mq_async_io_fifo_sched
	.type	hisi_ufs_mq_async_io_fifo_sched, %object
	.size	hisi_ufs_mq_async_io_fifo_sched, 56
hisi_ufs_mq_async_io_fifo_sched:
	.word	0
	.zero	4
	.xword	ufs_mq_async_sched_fifo_init
	.xword	ufs_mq_async_sched_fifo_insert
	.xword	ufs_mq_async_sched_fifo_seek
	.xword	ufs_mq_async_sched_fifo_requeue
	.xword	ufs_mq_async_sched_fifo_attempt_merge_bio
	.xword	ufs_mq_async_sched_fifo_is_empty
	.section	___kcrctab+blk_mq_tagset_ufs_mq_iosched_enable,"a",%progbits
	.align	3
	.type	__kcrctab_blk_mq_tagset_ufs_mq_iosched_enable, %object
	.size	__kcrctab_blk_mq_tagset_ufs_mq_iosched_enable, 8
__kcrctab_blk_mq_tagset_ufs_mq_iosched_enable:
	.xword	__crc_blk_mq_tagset_ufs_mq_iosched_enable
	.section	.rodata.str1.8,"aMS",%progbits,1
	.align	3
.LC0:
	.string	"\0013[BLK-IO]<%s> total_tags_used_count = %d total_reserved_tags_used_count = %d total_high_tags_used_count = %d \n"
.LC1:
	.string	"\0013[BLK-IO]<%s> high_prio_sync_io_inflight_count = %d sync_io_inflight_count = %d async_io_inflight_count = %d \n"
.LC2:
	.string	"\0013[BLK-IO]high_prio_sync_dispatch_list: \n"
	.zero	6
.LC3:
	.string	"\0013[BLK-IO]sync_dispatch_list: \n"
.LC4:
	.string	"\0013[BLK-IO]async_fifo_list: \n"
	.zero	3
.LC5:
	.string	"nr_tags=%u, reserved_tags=%u, high_prio_tags=%u, bits_per_word=%u\n"
	.zero	5
.LC6:
	.string	"nr_free=%u, nr_reserved=%u nr_high_prio=%u \n"
	.zero	3
.LC7:
	.string	"active_queues=%u\n"
	.zero	6
.LC8:
	.string	"\0013[BLK-IO]%s: mq_ctx_put_fn failed. err = %d \r\n"
.LC9:
	.string	"&(&sched_ds->sync_dispatch_list_lock)->rlock"
	.zero	3
.LC10:
	.string	"&(&sched_ds->async_dispatch_io_lock)->rlock"
	.zero	4
.LC11:
	.string	"sync_io_dispatch"
	.zero	7
.LC12:
	.string	"async_io_dispatch"
	.zero	6
.LC13:
	.string	"io_guard"
	.zero	7
.LC14:
	.string	"\0013[BLK-IO]blk-mq: alloc tags failed\n"
	.zero	3
.LC15:
	.string	"\0013[BLK-IO]depth = %d, reserved = %d, prio = %d \r\n"
	.zero	6
.LC16:
	.string	"\0013[BLK-IO]%s: error nomem\n"
	.bss
	.align	3
.LANCHOR0 = . + 0
	.type	hisi_blk_mq_sync_dispatch_workqueue, %object
	.size	hisi_blk_mq_sync_dispatch_workqueue, 8
hisi_blk_mq_sync_dispatch_workqueue:
	.zero	8
	.type	hisi_blk_mq_async_dispatch_workqueue, %object
	.size	hisi_blk_mq_async_dispatch_workqueue, 8
hisi_blk_mq_async_dispatch_workqueue:
	.zero	8
	.type	__key.40015, %object
	.size	__key.40015, 0
__key.40015:
	.type	__key.40016, %object
	.size	__key.40016, 0
__key.40016:
	.type	hisi_blk_io_guard_workqueue, %object
	.size	hisi_blk_io_guard_workqueue, 8
hisi_blk_io_guard_workqueue:
	.zero	8
	.type	hisi_io_guard_work, %object
	.size	hisi_io_guard_work, 96
hisi_io_guard_work:
	.zero	96
	.section	___ksymtab+blk_mq_tagset_ufs_mq_iosched_enable,"a",%progbits
	.align	3
	.type	__ksymtab_blk_mq_tagset_ufs_mq_iosched_enable, %object
	.size	__ksymtab_blk_mq_tagset_ufs_mq_iosched_enable, 16
__ksymtab_blk_mq_tagset_ufs_mq_iosched_enable:
	.xword	blk_mq_tagset_ufs_mq_iosched_enable
	.xword	__kstrtab_blk_mq_tagset_ufs_mq_iosched_enable
	.weak	__crc_blk_mq_tagset_ufs_mq_iosched_enable
	.text
.Letext0:
	.file 22 "/mnt/disk/jenkins/ci/workspace/chipset_pipeline_release/opensource/component_code/vendor/huawei/extra/build/build_script/kirin_kernel_release/kernel/include/uapi/asm-generic/int-ll64.h"
	.file 23 "/mnt/disk/jenkins/ci/workspace/chipset_pipeline_release/opensource/component_code/vendor/huawei/extra/build/build_script/kirin_kernel_release/kernel/include/asm-generic/int-ll64.h"
	.file 24 "/mnt/disk/jenkins/ci/workspace/chipset_pipeline_release/opensource/component_code/vendor/huawei/extra/build/build_script/kirin_kernel_release/kernel/include/uapi/asm-generic/posix_types.h"
	.file 25 "/mnt/disk/jenkins/ci/workspace/chipset_pipeline_release/opensource/component_code/vendor/huawei/extra/build/build_script/kirin_kernel_release/kernel/include/linux/export.h"
	.file 26 "/mnt/disk/jenkins/ci/workspace/chipset_pipeline_release/opensource/component_code/vendor/huawei/extra/build/build_script/kirin_kernel_release/kernel/include/linux/types.h"
	.file 27 "/mnt/disk/jenkins/ci/workspace/chipset_pipeline_release/opensource/component_code/vendor/huawei/extra/build/build_script/kirin_kernel_release/kernel/include/linux/restart_block.h"
	.file 28 "/mnt/disk/jenkins/ci/workspace/chipset_pipeline_release/opensource/component_code/vendor/huawei/extra/build/build_script/kirin_kernel_release/kernel/include/uapi/linux/time.h"
	.file 29 "/mnt/disk/jenkins/ci/workspace/chipset_pipeline_release/opensource/component_code/vendor/huawei/extra/build/build_script/kirin_kernel_release/kernel/arch/arm64/include/asm/compat.h"
	.file 30 "/mnt/disk/jenkins/ci/workspace/chipset_pipeline_release/opensource/component_code/vendor/huawei/extra/build/build_script/kirin_kernel_release/kernel/include/uapi/asm-generic/poll.h"
	.file 31 "/mnt/disk/jenkins/ci/workspace/chipset_pipeline_release/opensource/component_code/vendor/huawei/extra/build/build_script/kirin_kernel_release/kernel/arch/arm64/include/asm/thread_info.h"
	.file 32 "/mnt/disk/jenkins/ci/workspace/chipset_pipeline_release/opensource/component_code/vendor/huawei/extra/build/build_script/kirin_kernel_release/kernel/arch/arm64/include/uapi/asm/ptrace.h"
	.file 33 "/mnt/disk/jenkins/ci/workspace/chipset_pipeline_release/opensource/component_code/vendor/huawei/extra/build/build_script/kirin_kernel_release/kernel/arch/arm64/include/asm/spinlock_types.h"
	.file 34 "/mnt/disk/jenkins/ci/workspace/chipset_pipeline_release/opensource/component_code/vendor/huawei/extra/build/build_script/kirin_kernel_release/kernel/include/linux/spinlock_types.h"
	.file 35 "/mnt/disk/jenkins/ci/workspace/chipset_pipeline_release/opensource/component_code/vendor/huawei/extra/build/build_script/kirin_kernel_release/kernel/include/linux/rwlock_types.h"
	.file 36 "/mnt/disk/jenkins/ci/workspace/chipset_pipeline_release/opensource/component_code/vendor/huawei/extra/build/build_script/kirin_kernel_release/kernel/arch/arm64/include/asm/fpsimd.h"
	.file 37 "/mnt/disk/jenkins/ci/workspace/chipset_pipeline_release/opensource/component_code/vendor/huawei/extra/build/build_script/kirin_kernel_release/kernel/include/linux/jump_label.h"
	.file 38 "/mnt/disk/jenkins/ci/workspace/chipset_pipeline_release/opensource/component_code/vendor/huawei/extra/build/build_script/kirin_kernel_release/kernel/include/asm-generic/atomic-long.h"
	.file 39 "/mnt/disk/jenkins/ci/workspace/chipset_pipeline_release/opensource/component_code/vendor/huawei/extra/build/build_script/kirin_kernel_release/kernel/arch/arm64/include/asm/processor.h"
	.file 40 "/mnt/disk/jenkins/ci/workspace/chipset_pipeline_release/opensource/component_code/vendor/huawei/extra/build/build_script/kirin_kernel_release/kernel/include/linux/wait.h"
	.file 41 "/mnt/disk/jenkins/ci/workspace/chipset_pipeline_release/opensource/component_code/vendor/huawei/extra/build/build_script/kirin_kernel_release/kernel/include/linux/seqlock.h"
	.file 42 "/mnt/disk/jenkins/ci/workspace/chipset_pipeline_release/opensource/component_code/vendor/huawei/extra/build/build_script/kirin_kernel_release/kernel/include/linux/nodemask.h"
	.file 43 "/mnt/disk/jenkins/ci/workspace/chipset_pipeline_release/opensource/component_code/vendor/huawei/extra/build/build_script/kirin_kernel_release/kernel/include/linux/cpumask.h"
	.file 44 "/mnt/disk/jenkins/ci/workspace/chipset_pipeline_release/opensource/component_code/vendor/huawei/extra/build/build_script/kirin_kernel_release/kernel/include/linux/completion.h"
	.file 45 "/mnt/disk/jenkins/ci/workspace/chipset_pipeline_release/opensource/component_code/vendor/huawei/extra/build/build_script/kirin_kernel_release/kernel/include/linux/time64.h"
	.file 46 "/mnt/disk/jenkins/ci/workspace/chipset_pipeline_release/opensource/component_code/vendor/huawei/extra/build/build_script/kirin_kernel_release/kernel/include/linux/rbtree.h"
	.file 47 "/mnt/disk/jenkins/ci/workspace/chipset_pipeline_release/opensource/component_code/vendor/huawei/extra/build/build_script/kirin_kernel_release/kernel/include/linux/osq_lock.h"
	.file 48 "/mnt/disk/jenkins/ci/workspace/chipset_pipeline_release/opensource/component_code/vendor/huawei/extra/build/build_script/kirin_kernel_release/kernel/include/linux/rwsem.h"
	.file 49 "/mnt/disk/jenkins/ci/workspace/chipset_pipeline_release/opensource/component_code/vendor/huawei/extra/build/build_script/kirin_kernel_release/kernel/include/linux/mm_types.h"
	.file 50 "/mnt/disk/jenkins/ci/workspace/chipset_pipeline_release/opensource/component_code/vendor/huawei/extra/build/build_script/kirin_kernel_release/kernel/include/linux/lockdep.h"
	.file 51 "/mnt/disk/jenkins/ci/workspace/chipset_pipeline_release/opensource/component_code/vendor/huawei/extra/build/build_script/kirin_kernel_release/kernel/include/linux/uprobes.h"
	.file 52 "/mnt/disk/jenkins/ci/workspace/chipset_pipeline_release/opensource/component_code/vendor/huawei/extra/build/build_script/kirin_kernel_release/kernel/include/linux/timer.h"
	.file 53 "/mnt/disk/jenkins/ci/workspace/chipset_pipeline_release/opensource/component_code/vendor/huawei/extra/build/build_script/kirin_kernel_release/kernel/include/linux/uidgid.h"
	.file 54 "/mnt/disk/jenkins/ci/workspace/chipset_pipeline_release/opensource/component_code/vendor/huawei/extra/build/build_script/kirin_kernel_release/kernel/include/linux/sysctl.h"
	.file 55 "/mnt/disk/jenkins/ci/workspace/chipset_pipeline_release/opensource/component_code/vendor/huawei/extra/build/build_script/kirin_kernel_release/kernel/include/linux/stddef.h"
	.file 56 "/mnt/disk/jenkins/ci/workspace/chipset_pipeline_release/opensource/component_code/vendor/huawei/extra/build/build_script/kirin_kernel_release/kernel/arch/arm64/include/asm/pgtable-types.h"
	.file 57 "/mnt/disk/jenkins/ci/workspace/chipset_pipeline_release/opensource/component_code/vendor/huawei/extra/build/build_script/kirin_kernel_release/kernel/arch/arm64/include/asm/page.h"
	.file 58 "/mnt/disk/jenkins/ci/workspace/chipset_pipeline_release/opensource/component_code/vendor/huawei/extra/build/build_script/kirin_kernel_release/kernel/include/linux/pfn.h"
	.file 59 "/mnt/disk/jenkins/ci/workspace/chipset_pipeline_release/opensource/component_code/vendor/huawei/extra/build/build_script/kirin_kernel_release/kernel/include/linux/llist.h"
	.file 60 "/mnt/disk/jenkins/ci/workspace/chipset_pipeline_release/opensource/component_code/vendor/huawei/extra/build/build_script/kirin_kernel_release/kernel/include/linux/smp.h"
	.file 61 "/mnt/disk/jenkins/ci/workspace/chipset_pipeline_release/opensource/component_code/vendor/huawei/extra/build/build_script/kirin_kernel_release/kernel/arch/arm64/include/asm/smp.h"
	.file 62 "/mnt/disk/jenkins/ci/workspace/chipset_pipeline_release/opensource/component_code/vendor/huawei/extra/build/build_script/kirin_kernel_release/kernel/arch/arm64/include/asm/mmu.h"
	.file 63 "/mnt/disk/jenkins/ci/workspace/chipset_pipeline_release/opensource/component_code/vendor/huawei/extra/build/build_script/kirin_kernel_release/kernel/include/linux/fs.h"
	.file 64 "/mnt/disk/jenkins/ci/workspace/chipset_pipeline_release/opensource/component_code/vendor/huawei/extra/build/build_script/kirin_kernel_release/kernel/include/linux/rmap.h"
	.file 65 "/mnt/disk/jenkins/ci/workspace/chipset_pipeline_release/opensource/component_code/vendor/huawei/extra/build/build_script/kirin_kernel_release/kernel/include/linux/mm.h"
	.file 66 "/mnt/disk/jenkins/ci/workspace/chipset_pipeline_release/opensource/component_code/vendor/huawei/extra/build/build_script/kirin_kernel_release/kernel/include/linux/user_namespace.h"
	.file 67 "/mnt/disk/jenkins/ci/workspace/chipset_pipeline_release/opensource/component_code/vendor/huawei/extra/build/build_script/kirin_kernel_release/kernel/include/linux/mmzone.h"
	.file 68 "/mnt/disk/jenkins/ci/workspace/chipset_pipeline_release/opensource/component_code/vendor/huawei/extra/build/build_script/kirin_kernel_release/kernel/include/linux/page_ext.h"
	.file 69 "/mnt/disk/jenkins/ci/workspace/chipset_pipeline_release/opensource/component_code/vendor/huawei/extra/build/build_script/kirin_kernel_release/kernel/include/linux/mutex.h"
	.file 70 "/mnt/disk/jenkins/ci/workspace/chipset_pipeline_release/opensource/component_code/vendor/huawei/extra/build/build_script/kirin_kernel_release/kernel/include/linux/notifier.h"
	.file 71 "/mnt/disk/jenkins/ci/workspace/chipset_pipeline_release/opensource/component_code/vendor/huawei/extra/build/build_script/kirin_kernel_release/kernel/include/linux/percpu-refcount.h"
	.file 72 "/mnt/disk/jenkins/ci/workspace/chipset_pipeline_release/opensource/component_code/vendor/huawei/extra/build/build_script/kirin_kernel_release/kernel/include/linux/shrinker.h"
	.file 73 "/mnt/disk/jenkins/ci/workspace/chipset_pipeline_release/opensource/component_code/vendor/huawei/extra/build/build_script/kirin_kernel_release/kernel/include/uapi/linux/resource.h"
	.file 74 "/mnt/disk/jenkins/ci/workspace/chipset_pipeline_release/opensource/component_code/vendor/huawei/extra/build/build_script/kirin_kernel_release/kernel/include/linux/tracepoint-defs.h"
	.file 75 "/mnt/disk/jenkins/ci/workspace/chipset_pipeline_release/opensource/component_code/vendor/huawei/extra/build/build_script/kirin_kernel_release/kernel/include/linux/vmstat.h"
	.file 76 "/mnt/disk/jenkins/ci/workspace/chipset_pipeline_release/opensource/component_code/vendor/huawei/extra/build/build_script/kirin_kernel_release/kernel/include/linux/capability.h"
	.file 77 "/mnt/disk/jenkins/ci/workspace/chipset_pipeline_release/opensource/component_code/vendor/huawei/extra/build/build_script/kirin_kernel_release/kernel/include/linux/plist.h"
	.file 78 "/mnt/disk/jenkins/ci/workspace/chipset_pipeline_release/opensource/component_code/vendor/huawei/extra/build/build_script/kirin_kernel_release/kernel/include/asm-generic/cputime_jiffies.h"
	.file 79 "/mnt/disk/jenkins/ci/workspace/chipset_pipeline_release/opensource/component_code/vendor/huawei/extra/build/build_script/kirin_kernel_release/kernel/include/uapi/asm-generic/signal.h"
	.file 80 "/mnt/disk/jenkins/ci/workspace/chipset_pipeline_release/opensource/component_code/vendor/huawei/extra/build/build_script/kirin_kernel_release/kernel/include/uapi/asm-generic/signal-defs.h"
	.file 81 "/mnt/disk/jenkins/ci/workspace/chipset_pipeline_release/opensource/component_code/vendor/huawei/extra/build/build_script/kirin_kernel_release/kernel/include/uapi/asm-generic/siginfo.h"
	.file 82 "/mnt/disk/jenkins/ci/workspace/chipset_pipeline_release/opensource/component_code/vendor/huawei/extra/build/build_script/kirin_kernel_release/kernel/include/linux/signal.h"
	.file 83 "/mnt/disk/jenkins/ci/workspace/chipset_pipeline_release/opensource/component_code/vendor/huawei/extra/build/build_script/kirin_kernel_release/kernel/include/linux/pid.h"
	.file 84 "/mnt/disk/jenkins/ci/workspace/chipset_pipeline_release/opensource/component_code/vendor/huawei/extra/build/build_script/kirin_kernel_release/kernel/include/linux/seccomp.h"
	.file 85 "/mnt/disk/jenkins/ci/workspace/chipset_pipeline_release/opensource/component_code/vendor/huawei/extra/build/build_script/kirin_kernel_release/kernel/include/linux/timerqueue.h"
	.file 86 "/mnt/disk/jenkins/ci/workspace/chipset_pipeline_release/opensource/component_code/vendor/huawei/extra/build/build_script/kirin_kernel_release/kernel/include/linux/hrtimer.h"
	.file 87 "/mnt/disk/jenkins/ci/workspace/chipset_pipeline_release/opensource/component_code/vendor/huawei/extra/build/build_script/kirin_kernel_release/kernel/include/linux/task_io_accounting.h"
	.file 88 "/mnt/disk/jenkins/ci/workspace/chipset_pipeline_release/opensource/component_code/vendor/huawei/extra/build/build_script/kirin_kernel_release/kernel/include/linux/assoc_array.h"
	.file 89 "/mnt/disk/jenkins/ci/workspace/chipset_pipeline_release/opensource/component_code/vendor/huawei/extra/build/build_script/kirin_kernel_release/kernel/include/linux/key.h"
	.file 90 "/mnt/disk/jenkins/ci/workspace/chipset_pipeline_release/opensource/component_code/vendor/huawei/extra/build/build_script/kirin_kernel_release/kernel/include/linux/cred.h"
	.file 91 "/mnt/disk/jenkins/ci/workspace/chipset_pipeline_release/opensource/component_code/vendor/huawei/extra/build/build_script/kirin_kernel_release/kernel/include/linux/idr.h"
	.file 92 "/mnt/disk/jenkins/ci/workspace/chipset_pipeline_release/opensource/component_code/vendor/huawei/extra/build/build_script/kirin_kernel_release/kernel/include/linux/rcu_sync.h"
	.file 93 "/mnt/disk/jenkins/ci/workspace/chipset_pipeline_release/opensource/component_code/vendor/huawei/extra/build/build_script/kirin_kernel_release/kernel/include/linux/percpu-rwsem.h"
	.file 94 "/mnt/disk/jenkins/ci/workspace/chipset_pipeline_release/opensource/component_code/vendor/huawei/extra/build/build_script/kirin_kernel_release/kernel/include/linux/bpf-cgroup.h"
	.file 95 "/mnt/disk/jenkins/ci/workspace/chipset_pipeline_release/opensource/component_code/vendor/huawei/extra/build/build_script/kirin_kernel_release/kernel/include/linux/cgroup-defs.h"
	.file 96 "/mnt/disk/jenkins/ci/workspace/chipset_pipeline_release/opensource/component_code/vendor/huawei/extra/build/build_script/kirin_kernel_release/kernel/include/linux/kernfs.h"
	.file 97 "/mnt/disk/jenkins/ci/workspace/chipset_pipeline_release/opensource/component_code/vendor/huawei/extra/build/build_script/kirin_kernel_release/kernel/include/linux/seq_file.h"
	.file 98 "/mnt/disk/jenkins/ci/workspace/chipset_pipeline_release/opensource/component_code/vendor/huawei/extra/build/build_script/kirin_kernel_release/kernel/include/uapi/linux/taskstats.h"
	.file 99 "/mnt/disk/jenkins/ci/workspace/chipset_pipeline_release/opensource/component_code/vendor/huawei/extra/build/build_script/kirin_kernel_release/kernel/include/linux/nsproxy.h"
	.file 100 "/mnt/disk/jenkins/ci/workspace/chipset_pipeline_release/opensource/component_code/vendor/huawei/extra/build/build_script/kirin_kernel_release/kernel/include/linux/swap.h"
	.file 101 "/mnt/disk/jenkins/ci/workspace/chipset_pipeline_release/opensource/component_code/vendor/huawei/extra/build/build_script/kirin_kernel_release/kernel/include/linux/backing-dev-defs.h"
	.file 102 "/mnt/disk/jenkins/ci/workspace/chipset_pipeline_release/opensource/component_code/vendor/huawei/extra/build/build_script/kirin_kernel_release/kernel/include/linux/iocontext.h"
	.file 103 "/mnt/disk/jenkins/ci/workspace/chipset_pipeline_release/opensource/component_code/vendor/huawei/extra/build/build_script/kirin_kernel_release/kernel/include/linux/compat.h"
	.file 104 "/mnt/disk/jenkins/ci/workspace/chipset_pipeline_release/opensource/component_code/vendor/huawei/extra/build/build_script/kirin_kernel_release/kernel/include/linux/list_bl.h"
	.file 105 "/mnt/disk/jenkins/ci/workspace/chipset_pipeline_release/opensource/component_code/vendor/huawei/extra/build/build_script/kirin_kernel_release/kernel/include/linux/lockref.h"
	.file 106 "/mnt/disk/jenkins/ci/workspace/chipset_pipeline_release/opensource/component_code/vendor/huawei/extra/build/build_script/kirin_kernel_release/kernel/include/linux/dcache.h"
	.file 107 "/mnt/disk/jenkins/ci/workspace/chipset_pipeline_release/opensource/component_code/vendor/huawei/extra/build/build_script/kirin_kernel_release/kernel/include/linux/path.h"
	.file 108 "/mnt/disk/jenkins/ci/workspace/chipset_pipeline_release/opensource/component_code/vendor/huawei/extra/build/build_script/kirin_kernel_release/kernel/include/linux/stat.h"
	.file 109 "/mnt/disk/jenkins/ci/workspace/chipset_pipeline_release/opensource/component_code/vendor/huawei/extra/build/build_script/kirin_kernel_release/kernel/include/linux/list_lru.h"
	.file 110 "/mnt/disk/jenkins/ci/workspace/chipset_pipeline_release/opensource/component_code/vendor/huawei/extra/build/build_script/kirin_kernel_release/kernel/include/linux/radix-tree.h"
	.file 111 "/mnt/disk/jenkins/ci/workspace/chipset_pipeline_release/opensource/component_code/vendor/huawei/extra/build/build_script/kirin_kernel_release/kernel/include/uapi/linux/fiemap.h"
	.file 112 "/mnt/disk/jenkins/ci/workspace/chipset_pipeline_release/opensource/component_code/vendor/huawei/extra/build/build_script/kirin_kernel_release/kernel/include/linux/migrate_mode.h"
	.file 113 "/mnt/disk/jenkins/ci/workspace/chipset_pipeline_release/opensource/component_code/vendor/huawei/extra/build/build_script/kirin_kernel_release/kernel/include/linux/bvec.h"
	.file 114 "/mnt/disk/jenkins/ci/workspace/chipset_pipeline_release/opensource/component_code/vendor/huawei/extra/build/build_script/kirin_kernel_release/kernel/include/linux/delayed_call.h"
	.file 115 "/mnt/disk/jenkins/ci/workspace/chipset_pipeline_release/opensource/component_code/vendor/huawei/extra/build/build_script/kirin_kernel_release/kernel/include/linux/percpu_counter.h"
	.file 116 "/mnt/disk/jenkins/ci/workspace/chipset_pipeline_release/opensource/component_code/vendor/huawei/extra/build/build_script/kirin_kernel_release/kernel/include/linux/quota.h"
	.file 117 "/mnt/disk/jenkins/ci/workspace/chipset_pipeline_release/opensource/component_code/vendor/huawei/extra/build/build_script/kirin_kernel_release/kernel/include/linux/projid.h"
	.file 118 "/mnt/disk/jenkins/ci/workspace/chipset_pipeline_release/opensource/component_code/vendor/huawei/extra/build/build_script/kirin_kernel_release/kernel/include/linux/writeback.h"
	.file 119 "/mnt/disk/jenkins/ci/workspace/chipset_pipeline_release/opensource/component_code/vendor/huawei/extra/build/build_script/kirin_kernel_release/kernel/include/linux/uio.h"
	.file 120 "/mnt/disk/jenkins/ci/workspace/chipset_pipeline_release/opensource/component_code/vendor/huawei/extra/build/build_script/kirin_kernel_release/kernel/include/linux/genhd.h"
	.file 121 "/mnt/disk/jenkins/ci/workspace/chipset_pipeline_release/opensource/component_code/vendor/huawei/extra/build/build_script/kirin_kernel_release/kernel/include/linux/nfs_fs_i.h"
	.file 122 "/mnt/disk/jenkins/ci/workspace/chipset_pipeline_release/opensource/component_code/vendor/huawei/extra/build/build_script/kirin_kernel_release/kernel/include/linux/poll.h"
	.file 123 "/mnt/disk/jenkins/ci/workspace/chipset_pipeline_release/opensource/component_code/vendor/huawei/extra/build/build_script/kirin_kernel_release/kernel/include/linux/cgroup.h"
	.file 124 "/mnt/disk/jenkins/ci/workspace/chipset_pipeline_release/opensource/component_code/vendor/huawei/extra/build/build_script/kirin_kernel_release/kernel/include/linux/ns_common.h"
	.file 125 "/mnt/disk/jenkins/ci/workspace/chipset_pipeline_release/opensource/component_code/vendor/huawei/extra/build/build_script/kirin_kernel_release/kernel/include/linux/kref.h"
	.file 126 "/mnt/disk/jenkins/ci/workspace/chipset_pipeline_release/opensource/component_code/vendor/huawei/extra/build/build_script/kirin_kernel_release/kernel/include/linux/flex_proportions.h"
	.file 127 "/mnt/disk/jenkins/ci/workspace/chipset_pipeline_release/opensource/component_code/vendor/huawei/extra/build/build_script/kirin_kernel_release/kernel/include/linux/device.h"
	.file 128 "/mnt/disk/jenkins/ci/workspace/chipset_pipeline_release/opensource/component_code/vendor/huawei/extra/build/build_script/kirin_kernel_release/kernel/include/linux/kobject_ns.h"
	.file 129 "/mnt/disk/jenkins/ci/workspace/chipset_pipeline_release/opensource/component_code/vendor/huawei/extra/build/build_script/kirin_kernel_release/kernel/include/linux/sysfs.h"
	.file 130 "/mnt/disk/jenkins/ci/workspace/chipset_pipeline_release/opensource/component_code/vendor/huawei/extra/build/build_script/kirin_kernel_release/kernel/include/linux/kobject.h"
	.file 131 "/mnt/disk/jenkins/ci/workspace/chipset_pipeline_release/opensource/component_code/vendor/huawei/extra/build/build_script/kirin_kernel_release/kernel/include/linux/klist.h"
	.file 132 "/mnt/disk/jenkins/ci/workspace/chipset_pipeline_release/opensource/component_code/vendor/huawei/extra/build/build_script/kirin_kernel_release/kernel/include/linux/pinctrl/devinfo.h"
	.file 133 "/mnt/disk/jenkins/ci/workspace/chipset_pipeline_release/opensource/component_code/vendor/huawei/extra/build/build_script/kirin_kernel_release/kernel/include/linux/pm.h"
	.file 134 "/mnt/disk/jenkins/ci/workspace/chipset_pipeline_release/opensource/component_code/vendor/huawei/extra/build/build_script/kirin_kernel_release/kernel/include/linux/pm_wakeup.h"
	.file 135 "/mnt/disk/jenkins/ci/workspace/chipset_pipeline_release/opensource/component_code/vendor/huawei/extra/build/build_script/kirin_kernel_release/kernel/arch/arm64/include/asm/device.h"
	.file 136 "/mnt/disk/jenkins/ci/workspace/chipset_pipeline_release/opensource/component_code/vendor/huawei/extra/build/build_script/kirin_kernel_release/kernel/include/linux/mempool.h"
	.file 137 "/mnt/disk/jenkins/ci/workspace/chipset_pipeline_release/opensource/component_code/vendor/huawei/extra/build/build_script/kirin_kernel_release/kernel/include/linux/bsg.h"
	.file 138 "/mnt/disk/jenkins/ci/workspace/chipset_pipeline_release/opensource/component_code/vendor/huawei/extra/build/build_script/kirin_kernel_release/kernel/include/linux/elevator.h"
	.file 139 "/mnt/disk/jenkins/ci/workspace/chipset_pipeline_release/opensource/component_code/vendor/huawei/extra/build/build_script/kirin_kernel_release/kernel/include/linux/blk-mq.h"
	.file 140 "/mnt/disk/jenkins/ci/workspace/chipset_pipeline_release/opensource/component_code/vendor/huawei/extra/build/build_script/kirin_kernel_release/kernel/block/hisi-blk.h"
	.file 141 "/mnt/disk/jenkins/ci/workspace/chipset_pipeline_release/opensource/component_code/vendor/huawei/extra/build/build_script/kirin_kernel_release/kernel/block/blk-mq-tag.h"
	.file 142 "/mnt/disk/jenkins/ci/workspace/chipset_pipeline_release/opensource/component_code/vendor/huawei/extra/build/build_script/kirin_kernel_release/kernel/include/linux/interrupt.h"
	.file 143 "/mnt/disk/jenkins/ci/workspace/chipset_pipeline_release/opensource/component_code/vendor/huawei/extra/build/build_script/kirin_kernel_release/kernel/include/uapi/linux/uio.h"
	.file 144 "/mnt/disk/jenkins/ci/workspace/chipset_pipeline_release/opensource/component_code/vendor/huawei/extra/build/build_script/kirin_kernel_release/kernel/include/asm-generic/bitops/builtin-__fls.h"
	.file 145 "/mnt/disk/jenkins/ci/workspace/chipset_pipeline_release/opensource/component_code/vendor/huawei/extra/build/build_script/kirin_kernel_release/kernel/include/asm-generic/bitops/fls64.h"
	.file 146 "/mnt/disk/jenkins/ci/workspace/chipset_pipeline_release/opensource/component_code/vendor/huawei/extra/build/build_script/kirin_kernel_release/kernel/include/linux/thread_info.h"
	.file 147 "/mnt/disk/jenkins/ci/workspace/chipset_pipeline_release/opensource/component_code/vendor/huawei/extra/build/build_script/kirin_kernel_release/kernel/include/linux/jiffies.h"
	.file 148 "/mnt/disk/jenkins/ci/workspace/chipset_pipeline_release/opensource/component_code/vendor/huawei/extra/build/build_script/kirin_kernel_release/kernel/include/linux/log2.h"
	.file 149 "/mnt/disk/jenkins/ci/workspace/chipset_pipeline_release/opensource/component_code/vendor/huawei/extra/build/build_script/kirin_kernel_release/kernel/include/asm-generic/getorder.h"
	.file 150 "/mnt/disk/jenkins/ci/workspace/chipset_pipeline_release/opensource/component_code/vendor/huawei/extra/build/build_script/kirin_kernel_release/kernel/arch/arm64/include/asm/cmpxchg.h"
	.file 151 "/mnt/disk/jenkins/ci/workspace/chipset_pipeline_release/opensource/component_code/vendor/huawei/extra/build/build_script/kirin_kernel_release/kernel/arch/arm64/include/asm/cachetype.h"
	.file 152 "/mnt/disk/jenkins/ci/workspace/chipset_pipeline_release/opensource/component_code/vendor/huawei/extra/build/build_script/kirin_kernel_release/kernel/include/linux/printk.h"
	.file 153 "/mnt/disk/jenkins/ci/workspace/chipset_pipeline_release/opensource/component_code/vendor/huawei/extra/build/build_script/kirin_kernel_release/kernel/include/linux/kernel.h"
	.file 154 "/mnt/disk/jenkins/ci/workspace/chipset_pipeline_release/opensource/component_code/vendor/huawei/extra/build/build_script/kirin_kernel_release/kernel/arch/arm64/include/asm/stack_pointer.h"
	.file 155 "/mnt/disk/jenkins/ci/workspace/chipset_pipeline_release/opensource/component_code/vendor/huawei/extra/build/build_script/kirin_kernel_release/kernel/arch/arm64/include/asm/hwcap.h"
	.file 156 "/mnt/disk/jenkins/ci/workspace/chipset_pipeline_release/opensource/component_code/vendor/huawei/extra/build/build_script/kirin_kernel_release/kernel/arch/arm64/include/asm/cpufeature.h"
	.file 157 "/mnt/disk/jenkins/ci/workspace/chipset_pipeline_release/opensource/component_code/vendor/huawei/extra/build/build_script/kirin_kernel_release/kernel/arch/arm64/include/asm/virt.h"
	.file 158 "/mnt/disk/jenkins/ci/workspace/chipset_pipeline_release/opensource/component_code/vendor/huawei/extra/build/build_script/kirin_kernel_release/kernel/include/linux/highuid.h"
	.file 159 "/mnt/disk/jenkins/ci/workspace/chipset_pipeline_release/opensource/component_code/vendor/huawei/extra/build/build_script/kirin_kernel_release/kernel/arch/arm64/include/asm/memory.h"
	.file 160 "/mnt/disk/jenkins/ci/workspace/chipset_pipeline_release/opensource/component_code/vendor/huawei/extra/build/build_script/kirin_kernel_release/kernel/include/asm-generic/percpu.h"
	.file 161 "/mnt/disk/jenkins/ci/workspace/chipset_pipeline_release/opensource/component_code/vendor/huawei/extra/build/build_script/kirin_kernel_release/kernel/include/linux/debug_locks.h"
	.file 162 "/mnt/disk/jenkins/ci/workspace/chipset_pipeline_release/opensource/component_code/vendor/huawei/extra/build/build_script/kirin_kernel_release/kernel/include/asm-generic/pgtable.h"
	.file 163 "/mnt/disk/jenkins/ci/workspace/chipset_pipeline_release/opensource/component_code/vendor/huawei/extra/build/build_script/kirin_kernel_release/kernel/arch/arm64/include/asm/irq.h"
	.file 164 "/mnt/disk/jenkins/ci/workspace/chipset_pipeline_release/opensource/component_code/vendor/huawei/extra/build/build_script/kirin_kernel_release/kernel/arch/arm64/include/asm/hardirq.h"
	.file 165 "/mnt/disk/jenkins/ci/workspace/chipset_pipeline_release/opensource/component_code/vendor/huawei/extra/build/build_script/kirin_kernel_release/kernel/include/trace/events/block.h"
	.file 166 "/mnt/disk/jenkins/ci/workspace/chipset_pipeline_release/opensource/component_code/vendor/huawei/extra/build/build_script/kirin_kernel_release/kernel/include/linux/spinlock_api_smp.h"
	.file 167 "/mnt/disk/jenkins/ci/workspace/chipset_pipeline_release/opensource/component_code/vendor/huawei/extra/build/build_script/kirin_kernel_release/kernel/include/asm-generic/bitops/find.h"
	.file 168 "/mnt/disk/jenkins/ci/workspace/chipset_pipeline_release/opensource/component_code/vendor/huawei/extra/build/build_script/kirin_kernel_release/kernel/arch/arm64/include/asm/bitops.h"
	.file 169 "/mnt/disk/jenkins/ci/workspace/chipset_pipeline_release/opensource/component_code/vendor/huawei/extra/build/build_script/kirin_kernel_release/kernel/include/linux/percpu.h"
	.file 170 "/mnt/disk/jenkins/ci/workspace/chipset_pipeline_release/opensource/component_code/vendor/huawei/extra/build/build_script/kirin_kernel_release/kernel/include/linux/timekeeping.h"